(lp0
(S'cppflags'
p1
ccopy_reg
_reconstructor
p2
(cino.utils
SpaceList
p3
c__builtin__
list
p4
(lp5
S'-mmcu=atmega328p'
p6
aS'-DF_CPU=16000000L'
p7
aS'-DARDUINO=105'
p8
aS'-I/usr/share/arduino/hardware/arduino/cores/arduino'
p9
aS'-ffunction-sections'
p10
aS'-fdata-sections'
p11
aS'-g'
p12
aS'-Os'
p13
aS'-w'
p14
aS'-I/usr/share/arduino/hardware/arduino/variants/standard'
p15
aS'-Ilib/ros_lib'
p16
aS'-Ilib/ros_lib/diagnostic_msgs'
p17
aS'-Ilib/ros_lib/tf2_msgs'
p18
aS'-Ilib/ros_lib/polled_camera'
p19
aS'-Ilib/ros_lib/geometry_msgs'
p20
aS'-Ilib/ros_lib/topic_tools'
p21
aS'-Ilib/ros_lib/gazebo_msgs'
p22
aS'-Ilib/ros_lib/smach_msgs'
p23
aS'-Ilib/ros_lib/actionlib'
p24
aS'-Ilib/ros_lib/move_base_msgs'
p25
aS'-Ilib/ros_lib/roscpp'
p26
aS'-Ilib/ros_lib/visualization_msgs'
p27
aS'-Ilib/ros_lib/sensor_msgs'
p28
aS'-Ilib/ros_lib/nav_msgs'
p29
aS'-Ilib/ros_lib/stereo_msgs'
p30
aS'-Ilib/ros_lib/base_local_planner'
p31
aS'-Ilib/ros_lib/driver_base'
p32
aS'-Ilib/ros_lib/dynamic_reconfigure'
p33
aS'-Ilib/ros_lib/turtlesim'
p34
aS'-Ilib/ros_lib/robot_pose_ekf'
p35
aS'-Ilib/ros_lib/trajectory_msgs'
p36
aS'-Ilib/ros_lib/turtle_actionlib'
p37
aS'-Ilib/ros_lib/actionlib_msgs'
p38
aS'-Ilib/ros_lib/tf'
p39
aS'-Ilib/ros_lib/rosgraph_msgs'
p40
aS'-Ilib/ros_lib/rosserial_arduino'
p41
aS'-Ilib/ros_lib/shape_msgs'
p42
aS'-Ilib/ros_lib/bond'
p43
aS'-Ilib/ros_lib/rospy_tutorials'
p44
aS'-Ilib/ros_lib/std_srvs'
p45
aS'-Ilib/ros_lib/actionlib_tutorials'
p46
aS'-Ilib/ros_lib/control_msgs'
p47
aS'-Ilib/ros_lib/std_msgs'
p48
aS'-Ilib/ros_lib/pcl_msgs'
p49
aS'-Ilib/ros_lib/laser_assembler'
p50
aS'-Ilib/ros_lib/nodelet'
p51
aS'-Ilib/ros_lib/navfn'
p52
aS'-Ilib/ros_lib/rosserial_msgs'
p53
aS'-Ilib/ros_lib/roscpp_tutorials'
p54
aS'-Ilib/ros_lib/theora_image_transport'
p55
aS'-Ilib/ros_lib/costmap_2d'
p56
aS'-Ilib/ros_lib/tests'
p57
aS'-Ilib/ros_lib/ros'
p58
aS'-Ilib/ros_lib/tests/array_test'
p59
aS'-Ilib/ros_lib/tests/float64_test'
p60
aS'-Ilib/ros_lib/tests/time_test'
p61
aS'-I/usr/share/arduino/hardware/arduino/cores/arduino'
p62
aS'-I/usr/share/arduino/hardware/arduino/cores/arduino/avr-libc'
p63
atp64
Rp65
tp66
a(S'cxx'
p67
S'/usr/bin/avr-g++'
p68
tp69
a(S'arduino_libraries_dir'
p70
S'/usr/share/arduino/libraries'
p71
tp72
a(S'avrdude'
p73
S'/usr/share/arduino/hardware/tools/avrdude'
p74
tp75
a(S'ar'
p76
S'/usr/bin/avr-ar'
p77
tp78
a(S'names'
p79
(dp80
S'cpp'
p81
S'%s.cpp'
p82
sS'obj'
p83
S'%s.o'
p84
sS'lib'
p85
S'lib%s.a'
p86
sS'deps'
p87
S'%s.d'
p88
stp89
a(S'ldflags'
p90
g2
(g3
g4
(lp91
g6
aS'-Wl,-Os'
p92
aS'-Wl,--gc-sections'
p93
atp94
Rp95
tp96
a(S'arduino_lib_version'
p97
g2
(cino.environment
Version
p98
c__builtin__
tuple
p99
(I1
I0
I5
tp100
tp101
Rp102
tp103
a(S'objcopy'
p104
S'/usr/bin/avr-objcopy'
p105
tp106
a(S'board_models'
p107
cino.environment
BoardModels
p108
((lp109
(lp110
S'uno'
p111
a(dp112
S'bootloader'
p113
(dp114
S'extended_fuses'
p115
S'0x05'
p116
sS'high_fuses'
p117
S'0xde'
p118
sS'low_fuses'
p119
S'0xff'
p120
sS'lock_bits'
p121
S'0x0F'
p122
sS'file'
p123
S'optiboot_atmega328.hex'
p124
sS'path'
p125
S'optiboot'
p126
sS'unlock_bits'
p127
S'0x3F'
p128
ssS'upload'
p129
(dp130
S'protocol'
p131
S'arduino'
p132
sS'maximum_size'
p133
S'32256'
p134
sS'speed'
p135
S'115200'
p136
ssS'build'
p137
(dp138
S'core'
p139
S'arduino'
p140
sS'mcu'
p141
S'atmega328p'
p142
sS'f_cpu'
p143
S'16000000L'
p144
sS'variant'
p145
S'standard'
p146
ssS'name'
p147
S'Arduino Uno'
p148
saa(lp149
S'atmega328'
p150
a(dp151
S'bootloader'
p152
(dp153
S'extended_fuses'
p154
S'0x05'
p155
sS'high_fuses'
p156
S'0xDA'
p157
sS'low_fuses'
p158
S'0xFF'
p159
sS'lock_bits'
p160
S'0x0F'
p161
sS'file'
p162
S'ATmegaBOOT_168_atmega328.hex'
p163
sS'path'
p164
S'atmega'
p165
sS'unlock_bits'
p166
S'0x3F'
p167
ssS'upload'
p168
(dp169
S'protocol'
p170
S'arduino'
p171
sS'maximum_size'
p172
S'30720'
p173
sS'speed'
p174
S'57600'
p175
ssS'build'
p176
(dp177
S'core'
p178
S'arduino'
p179
sS'mcu'
p180
S'atmega328p'
p181
sS'f_cpu'
p182
S'16000000L'
p183
sS'variant'
p184
S'standard'
p185
ssS'name'
p186
S'Arduino Duemilanove w/ ATmega328'
p187
saa(lp188
S'diecimila'
p189
a(dp190
S'bootloader'
p191
(dp192
S'extended_fuses'
p193
S'0x00'
p194
sS'high_fuses'
p195
S'0xdd'
p196
sS'low_fuses'
p197
S'0xff'
p198
sS'lock_bits'
p199
S'0x0F'
p200
sS'file'
p201
S'ATmegaBOOT_168_diecimila.hex'
p202
sS'path'
p203
S'atmega'
p204
sS'unlock_bits'
p205
S'0x3F'
p206
ssS'upload'
p207
(dp208
S'protocol'
p209
S'arduino'
p210
sS'maximum_size'
p211
S'14336'
p212
sS'speed'
p213
S'19200'
p214
ssS'build'
p215
(dp216
S'core'
p217
S'arduino'
p218
sS'mcu'
p219
S'atmega168'
p220
sS'f_cpu'
p221
S'16000000L'
p222
sS'variant'
p223
S'standard'
p224
ssS'name'
p225
S'Arduino Diecimila or Duemilanove w/ ATmega168'
p226
saa(lp227
S'nano328'
p228
a(dp229
S'bootloader'
p230
(dp231
S'extended_fuses'
p232
S'0x05'
p233
sS'high_fuses'
p234
S'0xDA'
p235
sS'low_fuses'
p236
S'0xFF'
p237
sS'lock_bits'
p238
S'0x0F'
p239
sS'file'
p240
S'ATmegaBOOT_168_atmega328.hex'
p241
sS'path'
p242
S'atmega'
p243
sS'unlock_bits'
p244
S'0x3F'
p245
ssS'upload'
p246
(dp247
S'protocol'
p248
S'arduino'
p249
sS'maximum_size'
p250
S'30720'
p251
sS'speed'
p252
S'57600'
p253
ssS'build'
p254
(dp255
S'core'
p256
S'arduino'
p257
sS'mcu'
p258
S'atmega328p'
p259
sS'f_cpu'
p260
S'16000000L'
p261
sS'variant'
p262
S'eightanaloginputs'
p263
ssS'name'
p264
S'Arduino Nano w/ ATmega328'
p265
saa(lp266
S'nano'
p267
a(dp268
S'bootloader'
p269
(dp270
S'extended_fuses'
p271
S'0x00'
p272
sS'high_fuses'
p273
S'0xdd'
p274
sS'low_fuses'
p275
S'0xff'
p276
sS'lock_bits'
p277
S'0x0F'
p278
sS'file'
p279
S'ATmegaBOOT_168_diecimila.hex'
p280
sS'path'
p281
S'atmega'
p282
sS'unlock_bits'
p283
S'0x3F'
p284
ssS'upload'
p285
(dp286
S'protocol'
p287
S'arduino'
p288
sS'maximum_size'
p289
S'14336'
p290
sS'speed'
p291
S'19200'
p292
ssS'build'
p293
(dp294
S'core'
p295
S'arduino'
p296
sS'mcu'
p297
S'atmega168'
p298
sS'f_cpu'
p299
S'16000000L'
p300
sS'variant'
p301
S'eightanaloginputs'
p302
ssS'name'
p303
S'Arduino Nano w/ ATmega168'
p304
saa(lp305
S'mega2560'
p306
a(dp307
S'bootloader'
p308
(dp309
S'extended_fuses'
p310
S'0xFD'
p311
sS'high_fuses'
p312
S'0xD8'
p313
sS'low_fuses'
p314
S'0xFF'
p315
sS'lock_bits'
p316
S'0x0F'
p317
sS'file'
p318
S'stk500boot_v2_mega2560.hex'
p319
sS'path'
p320
S'stk500v2'
p321
sS'unlock_bits'
p322
S'0x3F'
p323
ssS'upload'
p324
(dp325
S'protocol'
p326
S'wiring'
p327
sS'maximum_size'
p328
S'258048'
p329
sS'speed'
p330
S'115200'
p331
ssS'build'
p332
(dp333
S'core'
p334
S'arduino'
p335
sS'mcu'
p336
S'atmega2560'
p337
sS'f_cpu'
p338
S'16000000L'
p339
sS'variant'
p340
S'mega'
p341
ssS'name'
p342
S'Arduino Mega 2560 or Mega ADK'
p343
saa(lp344
S'mega'
p345
a(dp346
S'bootloader'
p347
(dp348
S'extended_fuses'
p349
S'0xF5'
p350
sS'high_fuses'
p351
S'0xDA'
p352
sS'low_fuses'
p353
S'0xFF'
p354
sS'lock_bits'
p355
S'0x0F'
p356
sS'file'
p357
S'ATmegaBOOT_168_atmega1280.hex'
p358
sS'path'
p359
S'atmega'
p360
sS'unlock_bits'
p361
S'0x3F'
p362
ssS'upload'
p363
(dp364
S'protocol'
p365
S'arduino'
p366
sS'maximum_size'
p367
S'126976'
p368
sS'speed'
p369
S'57600'
p370
ssS'build'
p371
(dp372
S'core'
p373
S'arduino'
p374
sS'mcu'
p375
S'atmega1280'
p376
sS'f_cpu'
p377
S'16000000L'
p378
sS'variant'
p379
S'mega'
p380
ssS'name'
p381
S'Arduino Mega (ATmega1280)'
p382
saa(lp383
S'leonardo'
p384
a(dp385
S'bootloader'
p386
(dp387
S'extended_fuses'
p388
S'0xcb'
p389
sS'high_fuses'
p390
S'0xd8'
p391
sS'low_fuses'
p392
S'0xff'
p393
sS'lock_bits'
p394
S'0x2F'
p395
sS'file'
p396
S'Caterina-Leonardo.hex'
p397
sS'path'
p398
S'caterina'
p399
sS'unlock_bits'
p400
S'0x3F'
p401
ssS'upload'
p402
(dp403
S'protocol'
p404
S'avr109'
p405
sS'maximum_size'
p406
S'28672'
p407
sS'speed'
p408
S'57600'
p409
sS'disable_flushing'
p410
S'true'
p411
ssS'build'
p412
(dp413
S'core'
p414
S'arduino'
p415
sS'f_cpu'
p416
S'16000000L'
p417
sS'vid'
p418
S'0x2341'
p419
sS'pid'
p420
S'0x8036'
p421
sS'variant'
p422
S'leonardo'
p423
sS'mcu'
p424
S'atmega32u4'
p425
ssS'name'
p426
S'Arduino Leonardo'
p427
saa(lp428
S'esplora'
p429
a(dp430
S'bootloader'
p431
(dp432
S'extended_fuses'
p433
S'0xcb'
p434
sS'high_fuses'
p435
S'0xd8'
p436
sS'low_fuses'
p437
S'0xff'
p438
sS'lock_bits'
p439
S'0x2F'
p440
sS'file'
p441
S'Caterina-Esplora.hex'
p442
sS'path'
p443
S'caterina'
p444
sS'unlock_bits'
p445
S'0x3F'
p446
ssS'upload'
p447
(dp448
S'protocol'
p449
S'avr109'
p450
sS'maximum_size'
p451
S'28672'
p452
sS'speed'
p453
S'57600'
p454
sS'disable_flushing'
p455
S'true'
p456
ssS'build'
p457
(dp458
S'core'
p459
S'arduino'
p460
sS'f_cpu'
p461
S'16000000L'
p462
sS'vid'
p463
S'0x2341'
p464
sS'pid'
p465
S'0x803C'
p466
sS'variant'
p467
S'leonardo'
p468
sS'mcu'
p469
S'atmega32u4'
p470
ssS'name'
p471
S'Arduino Esplora'
p472
saa(lp473
S'micro'
p474
a(dp475
S'bootloader'
p476
(dp477
S'extended_fuses'
p478
S'0xcb'
p479
sS'high_fuses'
p480
S'0xd8'
p481
sS'low_fuses'
p482
S'0xff'
p483
sS'lock_bits'
p484
S'0x2F'
p485
sS'file'
p486
S'Caterina-Micro.hex'
p487
sS'path'
p488
S'caterina'
p489
sS'unlock_bits'
p490
S'0x3F'
p491
ssS'upload'
p492
(dp493
S'protocol'
p494
S'avr109'
p495
sS'maximum_size'
p496
S'28672'
p497
sS'speed'
p498
S'57600'
p499
sS'disable_flushing'
p500
S'true'
p501
ssS'build'
p502
(dp503
S'core'
p504
S'arduino'
p505
sS'f_cpu'
p506
S'16000000L'
p507
sS'vid'
p508
S'0x2341'
p509
sS'pid'
p510
S'0x8037'
p511
sS'variant'
p512
S'micro'
p513
sS'mcu'
p514
S'atmega32u4'
p515
ssS'name'
p516
S'Arduino Micro'
p517
saa(lp518
S'mini328'
p519
a(dp520
S'bootloader'
p521
(dp522
S'extended_fuses'
p523
S'0x05'
p524
sS'high_fuses'
p525
S'0xd8'
p526
sS'low_fuses'
p527
S'0xff'
p528
sS'lock_bits'
p529
S'0x0F'
p530
sS'file'
p531
S'optiboot_atmega328-Mini.hex'
p532
sS'path'
p533
S'optiboot'
p534
sS'unlock_bits'
p535
S'0x3F'
p536
ssS'upload'
p537
(dp538
S'protocol'
p539
S'arduino'
p540
sS'maximum_size'
p541
S'28672'
p542
sS'speed'
p543
S'115200'
p544
ssS'build'
p545
(dp546
S'core'
p547
S'arduino'
p548
sS'mcu'
p549
S'atmega328p'
p550
sS'f_cpu'
p551
S'16000000L'
p552
sS'variant'
p553
S'eightanaloginputs'
p554
ssS'name'
p555
S'Arduino Mini w/ ATmega328'
p556
saa(lp557
S'mini'
p558
a(dp559
S'bootloader'
p560
(dp561
S'extended_fuses'
p562
S'0x00'
p563
sS'high_fuses'
p564
S'0xdd'
p565
sS'low_fuses'
p566
S'0xff'
p567
sS'lock_bits'
p568
S'0x0F'
p569
sS'file'
p570
S'ATmegaBOOT_168_ng.hex'
p571
sS'path'
p572
S'atmega'
p573
sS'unlock_bits'
p574
S'0x3F'
p575
ssS'upload'
p576
(dp577
S'protocol'
p578
S'arduino'
p579
sS'maximum_size'
p580
S'14336'
p581
sS'speed'
p582
S'19200'
p583
ssS'build'
p584
(dp585
S'core'
p586
S'arduino'
p587
sS'mcu'
p588
S'atmega168'
p589
sS'f_cpu'
p590
S'16000000L'
p591
sS'variant'
p592
S'eightanaloginputs'
p593
ssS'name'
p594
S'Arduino Mini w/ ATmega168'
p595
saa(lp596
S'ethernet'
p597
a(dp598
S'bootloader'
p599
(dp600
S'extended_fuses'
p601
S'0x05'
p602
sS'high_fuses'
p603
S'0xde'
p604
sS'low_fuses'
p605
S'0xff'
p606
sS'lock_bits'
p607
S'0x0F'
p608
sS'file'
p609
S'optiboot_atmega328.hex'
p610
sS'path'
p611
S'optiboot'
p612
sS'unlock_bits'
p613
S'0x3F'
p614
ssS'upload'
p615
(dp616
S'protocol'
p617
S'arduino'
p618
sS'maximum_size'
p619
S'32256'
p620
sS'speed'
p621
S'115200'
p622
ssS'build'
p623
(dp624
S'variant'
p625
S'standard'
p626
sS'mcu'
p627
S'atmega328p'
p628
sS'f_cpu'
p629
S'16000000L'
p630
sS'core'
p631
S'arduino'
p632
ssS'name'
p633
S'Arduino Ethernet'
p634
saa(lp635
S'fio'
p636
a(dp637
S'bootloader'
p638
(dp639
S'extended_fuses'
p640
S'0x05'
p641
sS'high_fuses'
p642
S'0xDA'
p643
sS'low_fuses'
p644
S'0xFF'
p645
sS'lock_bits'
p646
S'0x0F'
p647
sS'file'
p648
S'ATmegaBOOT_168_atmega328_pro_8MHz.hex'
p649
sS'path'
p650
S'arduino:atmega'
p651
sS'unlock_bits'
p652
S'0x3F'
p653
ssS'upload'
p654
(dp655
S'protocol'
p656
S'arduino'
p657
sS'maximum_size'
p658
S'30720'
p659
sS'speed'
p660
S'57600'
p661
ssS'build'
p662
(dp663
S'core'
p664
S'arduino'
p665
sS'mcu'
p666
S'atmega328p'
p667
sS'f_cpu'
p668
S'8000000L'
p669
sS'variant'
p670
S'eightanaloginputs'
p671
ssS'name'
p672
S'Arduino Fio'
p673
saa(lp674
S'bt328'
p675
a(dp676
S'bootloader'
p677
(dp678
S'extended_fuses'
p679
S'0x05'
p680
sS'high_fuses'
p681
S'0xd8'
p682
sS'low_fuses'
p683
S'0xff'
p684
sS'lock_bits'
p685
S'0x0F'
p686
sS'file'
p687
S'ATmegaBOOT_168_atmega328_bt.hex'
p688
sS'path'
p689
S'bt'
p690
sS'unlock_bits'
p691
S'0x3F'
p692
ssS'upload'
p693
(dp694
S'protocol'
p695
S'arduino'
p696
sS'maximum_size'
p697
S'28672'
p698
sS'speed'
p699
S'19200'
p700
sS'disable_flushing'
p701
S'true'
p702
ssS'build'
p703
(dp704
S'core'
p705
S'arduino'
p706
sS'mcu'
p707
S'atmega328p'
p708
sS'f_cpu'
p709
S'16000000L'
p710
sS'variant'
p711
S'eightanaloginputs'
p712
ssS'name'
p713
S'Arduino BT w/ ATmega328'
p714
saa(lp715
S'bt'
p716
a(dp717
S'bootloader'
p718
(dp719
S'extended_fuses'
p720
S'0x00'
p721
sS'high_fuses'
p722
S'0xdd'
p723
sS'low_fuses'
p724
S'0xff'
p725
sS'lock_bits'
p726
S'0x0F'
p727
sS'file'
p728
S'ATmegaBOOT_168.hex'
p729
sS'path'
p730
S'bt'
p731
sS'unlock_bits'
p732
S'0x3F'
p733
ssS'upload'
p734
(dp735
S'protocol'
p736
S'arduino'
p737
sS'maximum_size'
p738
S'14336'
p739
sS'speed'
p740
S'19200'
p741
sS'disable_flushing'
p742
S'true'
p743
ssS'build'
p744
(dp745
S'core'
p746
S'arduino'
p747
sS'mcu'
p748
S'atmega168'
p749
sS'f_cpu'
p750
S'16000000L'
p751
sS'variant'
p752
S'eightanaloginputs'
p753
ssS'name'
p754
S'Arduino BT w/ ATmega168'
p755
saa(lp756
S'LilyPadUSB'
p757
a(dp758
S'bootloader'
p759
(dp760
S'extended_fuses'
p761
S'0xce'
p762
sS'high_fuses'
p763
S'0xd8'
p764
sS'low_fuses'
p765
S'0xff'
p766
sS'lock_bits'
p767
S'0x2F'
p768
sS'file'
p769
S'Caterina-LilyPadUSB.hex'
p770
sS'path'
p771
S'caterina-LilyPadUSB'
p772
sS'unlock_bits'
p773
S'0x3F'
p774
ssS'upload'
p775
(dp776
S'protocol'
p777
S'avr109'
p778
sS'maximum_size'
p779
S'28672'
p780
sS'speed'
p781
S'57600'
p782
sS'disable_flushing'
p783
S'true'
p784
ssS'build'
p785
(dp786
S'core'
p787
S'arduino'
p788
sS'f_cpu'
p789
S'8000000L'
p790
sS'vid'
p791
S'0x1B4F'
p792
sS'pid'
p793
S'0x9208'
p794
sS'variant'
p795
S'leonardo'
p796
sS'mcu'
p797
S'atmega32u4'
p798
ssS'name'
p799
S'LilyPad Arduino USB'
p800
saa(lp801
S'lilypad328'
p802
a(dp803
S'bootloader'
p804
(dp805
S'extended_fuses'
p806
S'0x05'
p807
sS'high_fuses'
p808
S'0xDA'
p809
sS'low_fuses'
p810
S'0xFF'
p811
sS'lock_bits'
p812
S'0x0F'
p813
sS'file'
p814
S'ATmegaBOOT_168_atmega328_pro_8MHz.hex'
p815
sS'path'
p816
S'atmega'
p817
sS'unlock_bits'
p818
S'0x3F'
p819
ssS'upload'
p820
(dp821
S'protocol'
p822
S'arduino'
p823
sS'maximum_size'
p824
S'30720'
p825
sS'speed'
p826
S'57600'
p827
ssS'build'
p828
(dp829
S'core'
p830
S'arduino'
p831
sS'mcu'
p832
S'atmega328p'
p833
sS'f_cpu'
p834
S'8000000L'
p835
sS'variant'
p836
S'standard'
p837
ssS'name'
p838
S'LilyPad Arduino w/ ATmega328'
p839
saa(lp840
S'lilypad'
p841
a(dp842
S'bootloader'
p843
(dp844
S'extended_fuses'
p845
S'0x00'
p846
sS'high_fuses'
p847
S'0xdd'
p848
sS'low_fuses'
p849
S'0xe2'
p850
sS'lock_bits'
p851
S'0x0F'
p852
sS'file'
p853
S'LilyPadBOOT_168.hex'
p854
sS'path'
p855
S'lilypad'
p856
sS'unlock_bits'
p857
S'0x3F'
p858
ssS'upload'
p859
(dp860
S'protocol'
p861
S'arduino'
p862
sS'maximum_size'
p863
S'14336'
p864
sS'speed'
p865
S'19200'
p866
ssS'build'
p867
(dp868
S'core'
p869
S'arduino'
p870
sS'mcu'
p871
S'atmega168'
p872
sS'f_cpu'
p873
S'8000000L'
p874
sS'variant'
p875
S'standard'
p876
ssS'name'
p877
S'LilyPad Arduino w/ ATmega168'
p878
saa(lp879
S'pro5v328'
p880
a(dp881
S'bootloader'
p882
(dp883
S'extended_fuses'
p884
S'0x05'
p885
sS'high_fuses'
p886
S'0xDA'
p887
sS'low_fuses'
p888
S'0xFF'
p889
sS'lock_bits'
p890
S'0x0F'
p891
sS'file'
p892
S'ATmegaBOOT_168_atmega328.hex'
p893
sS'path'
p894
S'atmega'
p895
sS'unlock_bits'
p896
S'0x3F'
p897
ssS'upload'
p898
(dp899
S'protocol'
p900
S'arduino'
p901
sS'maximum_size'
p902
S'30720'
p903
sS'speed'
p904
S'57600'
p905
ssS'build'
p906
(dp907
S'core'
p908
S'arduino'
p909
sS'mcu'
p910
S'atmega328p'
p911
sS'f_cpu'
p912
S'16000000L'
p913
sS'variant'
p914
S'standard'
p915
ssS'name'
p916
S'Arduino Pro or Pro Mini (5V, 16 MHz) w/ ATmega328'
p917
saa(lp918
S'pro5v'
p919
a(dp920
S'bootloader'
p921
(dp922
S'extended_fuses'
p923
S'0x00'
p924
sS'high_fuses'
p925
S'0xdd'
p926
sS'low_fuses'
p927
S'0xff'
p928
sS'lock_bits'
p929
S'0x0F'
p930
sS'file'
p931
S'ATmegaBOOT_168_diecimila.hex'
p932
sS'path'
p933
S'atmega'
p934
sS'unlock_bits'
p935
S'0x3F'
p936
ssS'upload'
p937
(dp938
S'protocol'
p939
S'arduino'
p940
sS'maximum_size'
p941
S'14336'
p942
sS'speed'
p943
S'19200'
p944
ssS'build'
p945
(dp946
S'core'
p947
S'arduino'
p948
sS'mcu'
p949
S'atmega168'
p950
sS'f_cpu'
p951
S'16000000L'
p952
sS'variant'
p953
S'standard'
p954
ssS'name'
p955
S'Arduino Pro or Pro Mini (5V, 16 MHz) w/ ATmega168'
p956
saa(lp957
S'pro328'
p958
a(dp959
S'bootloader'
p960
(dp961
S'extended_fuses'
p962
S'0x05'
p963
sS'high_fuses'
p964
S'0xDA'
p965
sS'low_fuses'
p966
S'0xFF'
p967
sS'lock_bits'
p968
S'0x0F'
p969
sS'file'
p970
S'ATmegaBOOT_168_atmega328_pro_8MHz.hex'
p971
sS'path'
p972
S'atmega'
p973
sS'unlock_bits'
p974
S'0x3F'
p975
ssS'upload'
p976
(dp977
S'protocol'
p978
S'arduino'
p979
sS'maximum_size'
p980
S'30720'
p981
sS'speed'
p982
S'57600'
p983
ssS'build'
p984
(dp985
S'core'
p986
S'arduino'
p987
sS'mcu'
p988
S'atmega328p'
p989
sS'f_cpu'
p990
S'8000000L'
p991
sS'variant'
p992
S'standard'
p993
ssS'name'
p994
S'Arduino Pro or Pro Mini (3.3V, 8 MHz) w/ ATmega328'
p995
saa(lp996
S'pro'
p997
a(dp998
S'bootloader'
p999
(dp1000
S'extended_fuses'
p1001
S'0x00'
p1002
sS'high_fuses'
p1003
S'0xdd'
p1004
sS'low_fuses'
p1005
S'0xc6'
p1006
sS'lock_bits'
p1007
S'0x0F'
p1008
sS'file'
p1009
S'ATmegaBOOT_168_pro_8MHz.hex'
p1010
sS'path'
p1011
S'atmega'
p1012
sS'unlock_bits'
p1013
S'0x3F'
p1014
ssS'upload'
p1015
(dp1016
S'protocol'
p1017
S'arduino'
p1018
sS'maximum_size'
p1019
S'14336'
p1020
sS'speed'
p1021
S'19200'
p1022
ssS'build'
p1023
(dp1024
S'core'
p1025
S'arduino'
p1026
sS'mcu'
p1027
S'atmega168'
p1028
sS'f_cpu'
p1029
S'8000000L'
p1030
sS'variant'
p1031
S'standard'
p1032
ssS'name'
p1033
S'Arduino Pro or Pro Mini (3.3V, 8 MHz) w/ ATmega168'
p1034
saa(lp1035
S'atmega168'
p1036
a(dp1037
S'bootloader'
p1038
(dp1039
S'extended_fuses'
p1040
S'0x00'
p1041
sS'high_fuses'
p1042
S'0xdd'
p1043
sS'low_fuses'
p1044
S'0xff'
p1045
sS'lock_bits'
p1046
S'0x0F'
p1047
sS'file'
p1048
S'ATmegaBOOT_168_ng.hex'
p1049
sS'path'
p1050
S'atmega'
p1051
sS'unlock_bits'
p1052
S'0x3F'
p1053
ssS'upload'
p1054
(dp1055
S'protocol'
p1056
S'arduino'
p1057
sS'maximum_size'
p1058
S'14336'
p1059
sS'speed'
p1060
S'19200'
p1061
ssS'build'
p1062
(dp1063
S'core'
p1064
S'arduino'
p1065
sS'mcu'
p1066
S'atmega168'
p1067
sS'f_cpu'
p1068
S'16000000L'
p1069
sS'variant'
p1070
S'standard'
p1071
ssS'name'
p1072
S'Arduino NG or older w/ ATmega168'
p1073
saa(lp1074
S'atmega8'
p1075
a(dp1076
S'bootloader'
p1077
(dp1078
S'high_fuses'
p1079
S'0xca'
p1080
sS'low_fuses'
p1081
S'0xdf'
p1082
sS'lock_bits'
p1083
S'0x0F'
p1084
sS'file'
p1085
S'ATmegaBOOT-prod-firmware-2009-11-07.hex'
p1086
sS'path'
p1087
S'atmega8'
p1088
sS'unlock_bits'
p1089
S'0x3F'
p1090
ssS'upload'
p1091
(dp1092
S'protocol'
p1093
S'arduino'
p1094
sS'maximum_size'
p1095
S'7168'
p1096
sS'speed'
p1097
S'19200'
p1098
ssS'build'
p1099
(dp1100
S'core'
p1101
S'arduino'
p1102
sS'mcu'
p1103
S'atmega8'
p1104
sS'f_cpu'
p1105
S'16000000L'
p1106
sS'variant'
p1107
S'standard'
p1108
ssS'name'
p1109
S'Arduino NG or older w/ ATmega8'
p1110
saa(lp1111
S'robotControl'
p1112
a(dp1113
S'bootloader'
p1114
(dp1115
S'extended_fuses'
p1116
S'0xcb'
p1117
sS'high_fuses'
p1118
S'0xd8'
p1119
sS'low_fuses'
p1120
S'0xff'
p1121
sS'lock_bits'
p1122
S'0x2F'
p1123
sS'file'
p1124
S'Caterina-Robot-Control.hex'
p1125
sS'path'
p1126
S'caterina-Arduino_Robot'
p1127
sS'unlock_bits'
p1128
S'0x3F'
p1129
ssS'upload'
p1130
(dp1131
S'protocol'
p1132
S'avr109'
p1133
sS'maximum_size'
p1134
S'28672'
p1135
sS'speed'
p1136
S'57600'
p1137
sS'disable_flushing'
p1138
S'true'
p1139
ssS'build'
p1140
(dp1141
S'core'
p1142
S'robot'
p1143
sS'f_cpu'
p1144
S'16000000L'
p1145
sS'vid'
p1146
S'0x2341'
p1147
sS'pid'
p1148
S'0x8038'
p1149
sS'variant'
p1150
S'robot_control'
p1151
sS'mcu'
p1152
S'atmega32u4'
p1153
ssS'name'
p1154
S'Arduino Robot Control'
p1155
saa(lp1156
S'robotMotor'
p1157
a(dp1158
S'bootloader'
p1159
(dp1160
S'extended_fuses'
p1161
S'0xcb'
p1162
sS'high_fuses'
p1163
S'0xd8'
p1164
sS'low_fuses'
p1165
S'0xff'
p1166
sS'lock_bits'
p1167
S'0x2F'
p1168
sS'file'
p1169
S'Caterina-Robot-Motor.hex'
p1170
sS'path'
p1171
S'caterina-Arduino_Robot'
p1172
sS'unlock_bits'
p1173
S'0x3F'
p1174
ssS'upload'
p1175
(dp1176
S'protocol'
p1177
S'avr109'
p1178
sS'maximum_size'
p1179
S'28672'
p1180
sS'speed'
p1181
S'57600'
p1182
sS'disable_flushing'
p1183
S'true'
p1184
ssS'build'
p1185
(dp1186
S'core'
p1187
S'robot'
p1188
sS'f_cpu'
p1189
S'16000000L'
p1190
sS'vid'
p1191
S'0x2341'
p1192
sS'pid'
p1193
S'0x8039'
p1194
sS'variant'
p1195
S'robot_motor'
p1196
sS'mcu'
p1197
S'atmega32u4'
p1198
ssS'name'
p1199
S'Arduino Robot Motor'
p1200
saatp1201
Rp1202
(dp1203
S'default'
p1204
S'uno'
p1205
sbtp1206
a(S'used_libs'
p1207
(lp1208
S'lib/ros_lib'
p1209
aS'/usr/share/arduino/hardware/arduino/cores/arduino'
p1210
atp1211
a(S'make'
p1212
S'/usr/bin/make'
p1213
tp1214
a(S'build_dir'
p1215
S'.build/uno'
p1216
tp1217
a(S'cc'
p1218
S'/usr/bin/avr-gcc'
p1219
tp1220
a(S'cflags'
p1221
g2
(g3
g4
(lp1222
tp1223
Rp1224
tp1225
a(S'cxxflags'
p1226
g2
(g3
g4
(lp1227
S'-fno-exceptions'
p1228
atp1229
Rp1230
tp1231
a(S'arduino_variants_dir'
p1232
S'/usr/share/arduino/hardware/arduino/variants'
p1233
tp1234
a(S'stty'
p1235
S'/bin/stty'
p1236
tp1237
a(S'version.txt'
p1238
S'/usr/share/arduino/lib/version.txt'
p1239
tp1240
a(S'arduino_core_dir'
p1241
g1210
tp1242
a(S'boards.txt'
p1243
S'/usr/share/arduino/hardware/arduino/boards.txt'
p1244
tp1245
a(S'avrdude.conf'
p1246
S'/usr/share/arduino/hardware/tools/avrdude.conf'
p1247
tp1248
a(S'deps'
p1249
g2
(g3
g4
(lp1250
S'.build/uno/src/dependencies.d'
p1251
aS'.build/uno/arduino/dependencies.d'
p1252
aS'.build/uno/ros_lib/dependencies.d'
p1253
atp1254
Rp1255
tp1256
a.