(lp0
(S'cppflags'
p1
ccopy_reg
_reconstructor
p2
(cino.utils
SpaceList
p3
c__builtin__
list
p4
(lp5
S'-mmcu=atmega328p'
p6
aS'-DF_CPU=16000000L'
p7
aS'-DARDUINO=100'
p8
aS'-I/usr/share/arduino/hardware/arduino/cores/arduino'
p9
aS'-ffunction-sections'
p10
aS'-fdata-sections'
p11
aS'-g'
p12
aS'-Os'
p13
aS'-w'
p14
aS'-I/usr/share/arduino/hardware/arduino/variants/standard'
p15
aS'-I/usr/share/arduino/libraries/Servo'
p16
aS'-Ilib/ros_lib'
p17
aS'-Ilib/ros_lib/mega_caretaker'
p18
aS'-Ilib/ros_lib/smach_msgs'
p19
aS'-Ilib/ros_lib/tests'
p20
aS'-Ilib/ros_lib/actionlib_tutorials'
p21
aS'-Ilib/ros_lib/rosgraph_msgs'
p22
aS'-Ilib/ros_lib/rosserial_arduino'
p23
aS'-Ilib/ros_lib/roscpp_tutorials'
p24
aS'-Ilib/ros_lib/pcl_msgs'
p25
aS'-Ilib/ros_lib/imu_filter_madgwick'
p26
aS'-Ilib/ros_lib/driver_base'
p27
aS'-Ilib/ros_lib/dynamic_reconfigure'
p28
aS'-Ilib/ros_lib/base_local_planner'
p29
aS'-Ilib/ros_lib/costmap_2d'
p30
aS'-Ilib/ros_lib/laser_assembler'
p31
aS'-Ilib/ros_lib/stereo_msgs'
p32
aS'-Ilib/ros_lib/wesley'
p33
aS'-Ilib/ros_lib/diagnostic_msgs'
p34
aS'-Ilib/ros_lib/sensor_msgs'
p35
aS'-Ilib/ros_lib/nodelet'
p36
aS'-Ilib/ros_lib/std_srvs'
p37
aS'-Ilib/ros_lib/theora_image_transport'
p38
aS'-Ilib/ros_lib/trajectory_msgs'
p39
aS'-Ilib/ros_lib/nav_msgs'
p40
aS'-Ilib/ros_lib/polled_camera'
p41
aS'-Ilib/ros_lib/actionlib_msgs'
p42
aS'-Ilib/ros_lib/control_msgs'
p43
aS'-Ilib/ros_lib/turtlesim'
p44
aS'-Ilib/ros_lib/std_msgs'
p45
aS'-Ilib/ros_lib/actionlib'
p46
aS'-Ilib/ros_lib/topic_tools'
p47
aS'-Ilib/ros_lib/rosserial_msgs'
p48
aS'-Ilib/ros_lib/rospy_tutorials'
p49
aS'-Ilib/ros_lib/visualization_msgs'
p50
aS'-Ilib/ros_lib/tf2_msgs'
p51
aS'-Ilib/ros_lib/ros'
p52
aS'-Ilib/ros_lib/robot_pose_ekf'
p53
aS'-Ilib/ros_lib/shape_msgs'
p54
aS'-Ilib/ros_lib/navfn'
p55
aS'-Ilib/ros_lib/gazebo_msgs'
p56
aS'-Ilib/ros_lib/tf'
p57
aS'-Ilib/ros_lib/roscpp'
p58
aS'-Ilib/ros_lib/bond'
p59
aS'-Ilib/ros_lib/geometry_msgs'
p60
aS'-Ilib/ros_lib/turtle_actionlib'
p61
aS'-Ilib/ros_lib/move_base_msgs'
p62
aS'-Ilib/ros_lib/tests/array_test'
p63
aS'-Ilib/ros_lib/tests/float64_test'
p64
aS'-Ilib/ros_lib/tests/time_test'
p65
aS'-I/usr/share/arduino/hardware/arduino/cores/arduino'
p66
atp67
Rp68
tp69
a(S'cxx'
p70
S'/usr/bin/avr-g++'
p71
tp72
a(S'version.txt'
p73
S'/usr/share/arduino/lib/version.txt'
p74
tp75
a(S'used_libs'
p76
(lp77
S'/usr/share/arduino/libraries/Servo'
p78
aS'lib/ros_lib'
p79
aS'/usr/share/arduino/hardware/arduino/cores/arduino'
p80
atp81
a(S'cc'
p82
S'/usr/bin/avr-gcc'
p83
tp84
a(S'make'
p85
S'/usr/bin/make'
p86
tp87
a(S'cflags'
p88
g2
(g3
g4
(lp89
tp90
Rp91
tp92
a(S'build_dir'
p93
S'.build/atmega328'
p94
tp95
a(S'arduino_core_dir'
p96
g80
tp97
a(S'boards.txt'
p98
S'/usr/share/arduino/hardware/arduino/boards.txt'
p99
tp100
a(S'cxxflags'
p101
g2
(g3
g4
(lp102
S'-fno-exceptions'
p103
atp104
Rp105
tp106
a(S'arduino_variants_dir'
p107
S'/usr/share/arduino/hardware/arduino/variants'
p108
tp109
a(S'ar'
p110
S'/usr/bin/avr-ar'
p111
tp112
a(S'names'
p113
(dp114
S'cpp'
p115
S'%s.cpp'
p116
sS'obj'
p117
S'%s.o'
p118
sS'deps'
p119
S'%s.d'
p120
sS'lib'
p121
S'lib%s.a'
p122
stp123
a(S'deps'
p124
g2
(g3
g4
(lp125
S'.build/atmega328/src/dependencies.d'
p126
aS'.build/atmega328/arduino/dependencies.d'
p127
aS'.build/atmega328/Servo/dependencies.d'
p128
aS'.build/atmega328/ros_lib/dependencies.d'
p129
atp130
Rp131
tp132
a(S'arduino_libraries_dir'
p133
S'/usr/share/arduino/libraries'
p134
tp135
a(S'arduino_lib_version'
p136
g2
(cino.environment
Version
p137
c__builtin__
tuple
p138
(I1
I0
I0
tp139
tp140
Rp141
tp142
a(S'objcopy'
p143
S'/usr/bin/avr-objcopy'
p144
tp145
a(S'board_models'
p146
cino.environment
BoardModels
p147
((lp148
(lp149
S'uno'
p150
a(dp151
S'bootloader'
p152
(dp153
S'extended_fuses'
p154
S'0x05'
p155
sS'high_fuses'
p156
S'0xde'
p157
sS'low_fuses'
p158
S'0xff'
p159
sS'lock_bits'
p160
S'0x0F'
p161
sS'file'
p162
S'optiboot_atmega328.hex'
p163
sS'path'
p164
S'optiboot'
p165
sS'unlock_bits'
p166
S'0x3F'
p167
ssS'upload'
p168
(dp169
S'protocol'
p170
S'arduino'
p171
sS'maximum_size'
p172
S'32256'
p173
sS'speed'
p174
S'115200'
p175
ssS'build'
p176
(dp177
S'core'
p178
S'arduino'
p179
sS'mcu'
p180
S'atmega328p'
p181
sS'f_cpu'
p182
S'16000000L'
p183
sS'variant'
p184
S'standard'
p185
ssS'name'
p186
S'Arduino Uno'
p187
saa(lp188
S'atmega328'
p189
a(dp190
S'bootloader'
p191
(dp192
S'extended_fuses'
p193
S'0x05'
p194
sS'high_fuses'
p195
S'0xDA'
p196
sS'low_fuses'
p197
S'0xFF'
p198
sS'lock_bits'
p199
S'0x0F'
p200
sS'file'
p201
S'ATmegaBOOT_168_atmega328.hex'
p202
sS'path'
p203
S'atmega'
p204
sS'unlock_bits'
p205
S'0x3F'
p206
ssS'upload'
p207
(dp208
S'protocol'
p209
S'arduino'
p210
sS'maximum_size'
p211
S'30720'
p212
sS'speed'
p213
S'57600'
p214
ssS'build'
p215
(dp216
S'core'
p217
S'arduino'
p218
sS'mcu'
p219
S'atmega328p'
p220
sS'f_cpu'
p221
S'16000000L'
p222
sS'variant'
p223
S'standard'
p224
ssS'name'
p225
S'Arduino Duemilanove w/ ATmega328'
p226
saa(lp227
S'diecimila'
p228
a(dp229
S'bootloader'
p230
(dp231
S'extended_fuses'
p232
S'0x00'
p233
sS'high_fuses'
p234
S'0xdd'
p235
sS'low_fuses'
p236
S'0xff'
p237
sS'lock_bits'
p238
S'0x0F'
p239
sS'file'
p240
S'ATmegaBOOT_168_diecimila.hex'
p241
sS'path'
p242
S'atmega'
p243
sS'unlock_bits'
p244
S'0x3F'
p245
ssS'upload'
p246
(dp247
S'protocol'
p248
S'arduino'
p249
sS'maximum_size'
p250
S'14336'
p251
sS'speed'
p252
S'19200'
p253
ssS'build'
p254
(dp255
S'core'
p256
S'arduino'
p257
sS'mcu'
p258
S'atmega168'
p259
sS'f_cpu'
p260
S'16000000L'
p261
sS'variant'
p262
S'standard'
p263
ssS'name'
p264
S'Arduino Diecimila or Duemilanove w/ ATmega168'
p265
saa(lp266
S'nano328'
p267
a(dp268
S'bootloader'
p269
(dp270
S'extended_fuses'
p271
S'0x05'
p272
sS'high_fuses'
p273
S'0xDA'
p274
sS'low_fuses'
p275
S'0xFF'
p276
sS'lock_bits'
p277
S'0x0F'
p278
sS'file'
p279
S'ATmegaBOOT_168_atmega328.hex'
p280
sS'path'
p281
S'atmega'
p282
sS'unlock_bits'
p283
S'0x3F'
p284
ssS'upload'
p285
(dp286
S'protocol'
p287
S'arduino'
p288
sS'maximum_size'
p289
S'30720'
p290
sS'speed'
p291
S'57600'
p292
ssS'build'
p293
(dp294
S'core'
p295
S'arduino'
p296
sS'mcu'
p297
S'atmega328p'
p298
sS'f_cpu'
p299
S'16000000L'
p300
sS'variant'
p301
S'eightanaloginputs'
p302
ssS'name'
p303
S'Arduino Nano w/ ATmega328'
p304
saa(lp305
S'nano'
p306
a(dp307
S'bootloader'
p308
(dp309
S'extended_fuses'
p310
S'0x00'
p311
sS'high_fuses'
p312
S'0xdd'
p313
sS'low_fuses'
p314
S'0xff'
p315
sS'lock_bits'
p316
S'0x0F'
p317
sS'file'
p318
S'ATmegaBOOT_168_diecimila.hex'
p319
sS'path'
p320
S'atmega'
p321
sS'unlock_bits'
p322
S'0x3F'
p323
ssS'upload'
p324
(dp325
S'protocol'
p326
S'arduino'
p327
sS'maximum_size'
p328
S'14336'
p329
sS'speed'
p330
S'19200'
p331
ssS'build'
p332
(dp333
S'core'
p334
S'arduino'
p335
sS'mcu'
p336
S'atmega168'
p337
sS'f_cpu'
p338
S'16000000L'
p339
sS'variant'
p340
S'eightanaloginputs'
p341
ssS'name'
p342
S'Arduino Nano w/ ATmega168'
p343
saa(lp344
S'mega2560'
p345
a(dp346
S'bootloader'
p347
(dp348
S'extended_fuses'
p349
S'0xFD'
p350
sS'high_fuses'
p351
S'0xD8'
p352
sS'low_fuses'
p353
S'0xFF'
p354
sS'lock_bits'
p355
S'0x0F'
p356
sS'file'
p357
S'stk500boot_v2_mega2560.hex'
p358
sS'path'
p359
S'stk500v2'
p360
sS'unlock_bits'
p361
S'0x3F'
p362
ssS'upload'
p363
(dp364
S'protocol'
p365
S'stk500v2'
p366
sS'maximum_size'
p367
S'258048'
p368
sS'speed'
p369
S'115200'
p370
ssS'build'
p371
(dp372
S'core'
p373
S'arduino'
p374
sS'mcu'
p375
S'atmega2560'
p376
sS'f_cpu'
p377
S'16000000L'
p378
sS'variant'
p379
S'mega'
p380
ssS'name'
p381
S'Arduino Mega 2560 or Mega ADK'
p382
saa(lp383
S'mega'
p384
a(dp385
S'bootloader'
p386
(dp387
S'extended_fuses'
p388
S'0xF5'
p389
sS'high_fuses'
p390
S'0xDA'
p391
sS'low_fuses'
p392
S'0xFF'
p393
sS'lock_bits'
p394
S'0x0F'
p395
sS'file'
p396
S'ATmegaBOOT_168_atmega1280.hex'
p397
sS'path'
p398
S'atmega'
p399
sS'unlock_bits'
p400
S'0x3F'
p401
ssS'upload'
p402
(dp403
S'protocol'
p404
S'arduino'
p405
sS'maximum_size'
p406
S'126976'
p407
sS'speed'
p408
S'57600'
p409
ssS'build'
p410
(dp411
S'core'
p412
S'arduino'
p413
sS'mcu'
p414
S'atmega1280'
p415
sS'f_cpu'
p416
S'16000000L'
p417
sS'variant'
p418
S'mega'
p419
ssS'name'
p420
S'Arduino Mega (ATmega1280)'
p421
saa(lp422
S'mini328'
p423
a(dp424
S'bootloader'
p425
(dp426
S'extended_fuses'
p427
S'0x05'
p428
sS'high_fuses'
p429
S'0xd8'
p430
sS'low_fuses'
p431
S'0xff'
p432
sS'lock_bits'
p433
S'0x0F'
p434
sS'file'
p435
S'optiboot_atmega328-Mini.hex'
p436
sS'path'
p437
S'optiboot'
p438
sS'unlock_bits'
p439
S'0x3F'
p440
ssS'upload'
p441
(dp442
S'protocol'
p443
S'stk500'
p444
sS'maximum_size'
p445
S'28672'
p446
sS'speed'
p447
S'115200'
p448
ssS'build'
p449
(dp450
S'core'
p451
S'arduino'
p452
sS'mcu'
p453
S'atmega328p'
p454
sS'f_cpu'
p455
S'16000000L'
p456
sS'variant'
p457
S'eightanaloginputs'
p458
ssS'name'
p459
S'Arduino Mini w/ ATmega328'
p460
saa(lp461
S'mini'
p462
a(dp463
S'bootloader'
p464
(dp465
S'extended_fuses'
p466
S'0x00'
p467
sS'high_fuses'
p468
S'0xdd'
p469
sS'low_fuses'
p470
S'0xff'
p471
sS'lock_bits'
p472
S'0x0F'
p473
sS'file'
p474
S'ATmegaBOOT_168_ng.hex'
p475
sS'path'
p476
S'atmega'
p477
sS'unlock_bits'
p478
S'0x3F'
p479
ssS'upload'
p480
(dp481
S'protocol'
p482
S'arduino'
p483
sS'maximum_size'
p484
S'14336'
p485
sS'speed'
p486
S'19200'
p487
ssS'build'
p488
(dp489
S'core'
p490
S'arduino'
p491
sS'mcu'
p492
S'atmega168'
p493
sS'f_cpu'
p494
S'16000000L'
p495
sS'variant'
p496
S'eightanaloginputs'
p497
ssS'name'
p498
S'Arduino Mini w/ ATmega168'
p499
saa(lp500
S'ethernet'
p501
a(dp502
S'bootloader'
p503
(dp504
S'extended_fuses'
p505
S'0x05'
p506
sS'high_fuses'
p507
S'0xde'
p508
sS'low_fuses'
p509
S'0xff'
p510
sS'lock_bits'
p511
S'0x0F'
p512
sS'file'
p513
S'optiboot_atmega328.hex'
p514
sS'path'
p515
S'optiboot'
p516
sS'unlock_bits'
p517
S'0x3F'
p518
ssS'upload'
p519
(dp520
S'protocol'
p521
S'arduino'
p522
sS'maximum_size'
p523
S'32256'
p524
sS'speed'
p525
S'115200'
p526
ssS'build'
p527
(dp528
S'variant'
p529
S'standard'
p530
sS'mcu'
p531
S'atmega328p'
p532
sS'f_cpu'
p533
S'16000000L'
p534
sS'core'
p535
S'arduino'
p536
ssS'name'
p537
S'Arduino Ethernet'
p538
saa(lp539
S'fio'
p540
a(dp541
S'bootloader'
p542
(dp543
S'extended_fuses'
p544
S'0x05'
p545
sS'high_fuses'
p546
S'0xDA'
p547
sS'low_fuses'
p548
S'0xFF'
p549
sS'lock_bits'
p550
S'0x0F'
p551
sS'file'
p552
S'ATmegaBOOT_168_atmega328_pro_8MHz.hex'
p553
sS'path'
p554
S'arduino:atmega'
p555
sS'unlock_bits'
p556
S'0x3F'
p557
ssS'upload'
p558
(dp559
S'protocol'
p560
S'arduino'
p561
sS'maximum_size'
p562
S'30720'
p563
sS'speed'
p564
S'57600'
p565
ssS'build'
p566
(dp567
S'core'
p568
S'arduino'
p569
sS'mcu'
p570
S'atmega328p'
p571
sS'f_cpu'
p572
S'8000000L'
p573
sS'variant'
p574
S'eightanaloginputs'
p575
ssS'name'
p576
S'Arduino Fio'
p577
saa(lp578
S'bt328'
p579
a(dp580
S'bootloader'
p581
(dp582
S'extended_fuses'
p583
S'0x05'
p584
sS'high_fuses'
p585
S'0xd8'
p586
sS'low_fuses'
p587
S'0xff'
p588
sS'lock_bits'
p589
S'0x0F'
p590
sS'file'
p591
S'ATmegaBOOT_168_atmega328_bt.hex'
p592
sS'path'
p593
S'bt'
p594
sS'unlock_bits'
p595
S'0x3F'
p596
ssS'upload'
p597
(dp598
S'protocol'
p599
S'arduino'
p600
sS'maximum_size'
p601
S'28672'
p602
sS'speed'
p603
S'19200'
p604
sS'disable_flushing'
p605
S'true'
p606
ssS'build'
p607
(dp608
S'core'
p609
S'arduino'
p610
sS'mcu'
p611
S'atmega328p'
p612
sS'f_cpu'
p613
S'16000000L'
p614
sS'variant'
p615
S'eightanaloginputs'
p616
ssS'name'
p617
S'Arduino BT w/ ATmega328'
p618
saa(lp619
S'bt'
p620
a(dp621
S'bootloader'
p622
(dp623
S'extended_fuses'
p624
S'0x00'
p625
sS'high_fuses'
p626
S'0xdd'
p627
sS'low_fuses'
p628
S'0xff'
p629
sS'lock_bits'
p630
S'0x0F'
p631
sS'file'
p632
S'ATmegaBOOT_168.hex'
p633
sS'path'
p634
S'bt'
p635
sS'unlock_bits'
p636
S'0x3F'
p637
ssS'upload'
p638
(dp639
S'protocol'
p640
S'arduino'
p641
sS'maximum_size'
p642
S'14336'
p643
sS'speed'
p644
S'19200'
p645
sS'disable_flushing'
p646
S'true'
p647
ssS'build'
p648
(dp649
S'core'
p650
S'arduino'
p651
sS'mcu'
p652
S'atmega168'
p653
sS'f_cpu'
p654
S'16000000L'
p655
sS'variant'
p656
S'eightanaloginputs'
p657
ssS'name'
p658
S'Arduino BT w/ ATmega168'
p659
saa(lp660
S'lilypad328'
p661
a(dp662
S'bootloader'
p663
(dp664
S'extended_fuses'
p665
S'0x05'
p666
sS'high_fuses'
p667
S'0xDA'
p668
sS'low_fuses'
p669
S'0xFF'
p670
sS'lock_bits'
p671
S'0x0F'
p672
sS'file'
p673
S'ATmegaBOOT_168_atmega328_pro_8MHz.hex'
p674
sS'path'
p675
S'atmega'
p676
sS'unlock_bits'
p677
S'0x3F'
p678
ssS'upload'
p679
(dp680
S'protocol'
p681
S'arduino'
p682
sS'maximum_size'
p683
S'30720'
p684
sS'speed'
p685
S'57600'
p686
ssS'build'
p687
(dp688
S'core'
p689
S'arduino'
p690
sS'mcu'
p691
S'atmega328p'
p692
sS'f_cpu'
p693
S'8000000L'
p694
sS'variant'
p695
S'standard'
p696
ssS'name'
p697
S'LilyPad Arduino w/ ATmega328'
p698
saa(lp699
S'lilypad'
p700
a(dp701
S'bootloader'
p702
(dp703
S'extended_fuses'
p704
S'0x00'
p705
sS'high_fuses'
p706
S'0xdd'
p707
sS'low_fuses'
p708
S'0xe2'
p709
sS'lock_bits'
p710
S'0x0F'
p711
sS'file'
p712
S'LilyPadBOOT_168.hex'
p713
sS'path'
p714
S'lilypad'
p715
sS'unlock_bits'
p716
S'0x3F'
p717
ssS'upload'
p718
(dp719
S'protocol'
p720
S'arduino'
p721
sS'maximum_size'
p722
S'14336'
p723
sS'speed'
p724
S'19200'
p725
ssS'build'
p726
(dp727
S'core'
p728
S'arduino'
p729
sS'mcu'
p730
S'atmega168'
p731
sS'f_cpu'
p732
S'8000000L'
p733
sS'variant'
p734
S'standard'
p735
ssS'name'
p736
S'LilyPad Arduino w/ ATmega168'
p737
saa(lp738
S'pro5v328'
p739
a(dp740
S'bootloader'
p741
(dp742
S'extended_fuses'
p743
S'0x05'
p744
sS'high_fuses'
p745
S'0xDA'
p746
sS'low_fuses'
p747
S'0xFF'
p748
sS'lock_bits'
p749
S'0x0F'
p750
sS'file'
p751
S'ATmegaBOOT_168_atmega328.hex'
p752
sS'path'
p753
S'atmega'
p754
sS'unlock_bits'
p755
S'0x3F'
p756
ssS'upload'
p757
(dp758
S'protocol'
p759
S'arduino'
p760
sS'maximum_size'
p761
S'30720'
p762
sS'speed'
p763
S'57600'
p764
ssS'build'
p765
(dp766
S'core'
p767
S'arduino'
p768
sS'mcu'
p769
S'atmega328p'
p770
sS'f_cpu'
p771
S'16000000L'
p772
sS'variant'
p773
S'standard'
p774
ssS'name'
p775
S'Arduino Pro or Pro Mini (5V, 16 MHz) w/ ATmega328'
p776
saa(lp777
S'pro5v'
p778
a(dp779
S'bootloader'
p780
(dp781
S'extended_fuses'
p782
S'0x00'
p783
sS'high_fuses'
p784
S'0xdd'
p785
sS'low_fuses'
p786
S'0xff'
p787
sS'lock_bits'
p788
S'0x0F'
p789
sS'file'
p790
S'ATmegaBOOT_168_diecimila.hex'
p791
sS'path'
p792
S'atmega'
p793
sS'unlock_bits'
p794
S'0x3F'
p795
ssS'upload'
p796
(dp797
S'protocol'
p798
S'arduino'
p799
sS'maximum_size'
p800
S'14336'
p801
sS'speed'
p802
S'19200'
p803
ssS'build'
p804
(dp805
S'core'
p806
S'arduino'
p807
sS'mcu'
p808
S'atmega168'
p809
sS'f_cpu'
p810
S'16000000L'
p811
sS'variant'
p812
S'standard'
p813
ssS'name'
p814
S'Arduino Pro or Pro Mini (5V, 16 MHz) w/ ATmega168'
p815
saa(lp816
S'pro328'
p817
a(dp818
S'bootloader'
p819
(dp820
S'extended_fuses'
p821
S'0x05'
p822
sS'high_fuses'
p823
S'0xDA'
p824
sS'low_fuses'
p825
S'0xFF'
p826
sS'lock_bits'
p827
S'0x0F'
p828
sS'file'
p829
S'ATmegaBOOT_168_atmega328_pro_8MHz.hex'
p830
sS'path'
p831
S'atmega'
p832
sS'unlock_bits'
p833
S'0x3F'
p834
ssS'upload'
p835
(dp836
S'protocol'
p837
S'arduino'
p838
sS'maximum_size'
p839
S'30720'
p840
sS'speed'
p841
S'57600'
p842
ssS'build'
p843
(dp844
S'core'
p845
S'arduino'
p846
sS'mcu'
p847
S'atmega328p'
p848
sS'f_cpu'
p849
S'8000000L'
p850
sS'variant'
p851
S'standard'
p852
ssS'name'
p853
S'Arduino Pro or Pro Mini (3.3V, 8 MHz) w/ ATmega328'
p854
saa(lp855
S'pro'
p856
a(dp857
S'bootloader'
p858
(dp859
S'extended_fuses'
p860
S'0x00'
p861
sS'high_fuses'
p862
S'0xdd'
p863
sS'low_fuses'
p864
S'0xc6'
p865
sS'lock_bits'
p866
S'0x0F'
p867
sS'file'
p868
S'ATmegaBOOT_168_pro_8MHz.hex'
p869
sS'path'
p870
S'atmega'
p871
sS'unlock_bits'
p872
S'0x3F'
p873
ssS'upload'
p874
(dp875
S'protocol'
p876
S'arduino'
p877
sS'maximum_size'
p878
S'14336'
p879
sS'speed'
p880
S'19200'
p881
ssS'build'
p882
(dp883
S'core'
p884
S'arduino'
p885
sS'mcu'
p886
S'atmega168'
p887
sS'f_cpu'
p888
S'8000000L'
p889
sS'variant'
p890
S'standard'
p891
ssS'name'
p892
S'Arduino Pro or Pro Mini (3.3V, 8 MHz) w/ ATmega168'
p893
saa(lp894
S'atmega168'
p895
a(dp896
S'bootloader'
p897
(dp898
S'extended_fuses'
p899
S'0x00'
p900
sS'high_fuses'
p901
S'0xdd'
p902
sS'low_fuses'
p903
S'0xff'
p904
sS'lock_bits'
p905
S'0x0F'
p906
sS'file'
p907
S'ATmegaBOOT_168_ng.hex'
p908
sS'path'
p909
S'atmega'
p910
sS'unlock_bits'
p911
S'0x3F'
p912
ssS'upload'
p913
(dp914
S'protocol'
p915
S'arduino'
p916
sS'maximum_size'
p917
S'14336'
p918
sS'speed'
p919
S'19200'
p920
ssS'build'
p921
(dp922
S'core'
p923
S'arduino'
p924
sS'mcu'
p925
S'atmega168'
p926
sS'f_cpu'
p927
S'16000000L'
p928
sS'variant'
p929
S'standard'
p930
ssS'name'
p931
S'Arduino NG or older w/ ATmega168'
p932
saa(lp933
S'atmega8'
p934
a(dp935
S'bootloader'
p936
(dp937
S'high_fuses'
p938
S'0xca'
p939
sS'low_fuses'
p940
S'0xdf'
p941
sS'lock_bits'
p942
S'0x0F'
p943
sS'file'
p944
S'ATmegaBOOT.hex'
p945
sS'path'
p946
S'atmega8'
p947
sS'unlock_bits'
p948
S'0x3F'
p949
ssS'upload'
p950
(dp951
S'protocol'
p952
S'arduino'
p953
sS'maximum_size'
p954
S'7168'
p955
sS'speed'
p956
S'19200'
p957
ssS'build'
p958
(dp959
S'core'
p960
S'arduino'
p961
sS'mcu'
p962
S'atmega8'
p963
sS'f_cpu'
p964
S'16000000L'
p965
sS'variant'
p966
S'standard'
p967
ssS'name'
p968
S'Arduino NG or older w/ ATmega8'
p969
saatp970
Rp971
(dp972
S'default'
p973
S'uno'
p974
sbtp975
a(S'ldflags'
p976
g2
(g3
g4
(lp977
g6
aS'-Wl,-Os'
p978
aS'-Wl,--gc-sections'
p979
atp980
Rp981
tp982
a.