(lp0
(S'cppflags'
p1
ccopy_reg
_reconstructor
p2
(cino.utils
SpaceList
p3
c__builtin__
list
p4
(lp5
S'-mmcu=atmega328p'
p6
aS'-DF_CPU=16000000L'
p7
aS'-DARDUINO=105'
p8
aS'-I/usr/share/arduino/hardware/arduino/cores/arduino'
p9
aS'-ffunction-sections'
p10
aS'-fdata-sections'
p11
aS'-g'
p12
aS'-Os'
p13
aS'-w'
p14
aS'-I/usr/share/arduino/hardware/arduino/variants/standard'
p15
aS'-Ilib/ros_lib'
p16
aS'-Ilib/ros_lib/diagnostic_msgs'
p17
aS'-Ilib/ros_lib/tf2_msgs'
p18
aS'-Ilib/ros_lib/polled_camera'
p19
aS'-Ilib/ros_lib/geometry_msgs'
p20
aS'-Ilib/ros_lib/topic_tools'
p21
aS'-Ilib/ros_lib/gazebo_msgs'
p22
aS'-Ilib/ros_lib/smach_msgs'
p23
aS'-Ilib/ros_lib/actionlib'
p24
aS'-Ilib/ros_lib/move_base_msgs'
p25
aS'-Ilib/ros_lib/roscpp'
p26
aS'-Ilib/ros_lib/visualization_msgs'
p27
aS'-Ilib/ros_lib/sensor_msgs'
p28
aS'-Ilib/ros_lib/nav_msgs'
p29
aS'-Ilib/ros_lib/stereo_msgs'
p30
aS'-Ilib/ros_lib/base_local_planner'
p31
aS'-Ilib/ros_lib/driver_base'
p32
aS'-Ilib/ros_lib/dynamic_reconfigure'
p33
aS'-Ilib/ros_lib/turtlesim'
p34
aS'-Ilib/ros_lib/robot_pose_ekf'
p35
aS'-Ilib/ros_lib/trajectory_msgs'
p36
aS'-Ilib/ros_lib/turtle_actionlib'
p37
aS'-Ilib/ros_lib/actionlib_msgs'
p38
aS'-Ilib/ros_lib/tf'
p39
aS'-Ilib/ros_lib/rosgraph_msgs'
p40
aS'-Ilib/ros_lib/rosserial_arduino'
p41
aS'-Ilib/ros_lib/shape_msgs'
p42
aS'-Ilib/ros_lib/bond'
p43
aS'-Ilib/ros_lib/rospy_tutorials'
p44
aS'-Ilib/ros_lib/std_srvs'
p45
aS'-Ilib/ros_lib/actionlib_tutorials'
p46
aS'-Ilib/ros_lib/control_msgs'
p47
aS'-Ilib/ros_lib/std_msgs'
p48
aS'-Ilib/ros_lib/pcl_msgs'
p49
aS'-Ilib/ros_lib/laser_assembler'
p50
aS'-Ilib/ros_lib/nodelet'
p51
aS'-Ilib/ros_lib/navfn'
p52
aS'-Ilib/ros_lib/rosserial_msgs'
p53
aS'-Ilib/ros_lib/roscpp_tutorials'
p54
aS'-Ilib/ros_lib/theora_image_transport'
p55
aS'-Ilib/ros_lib/costmap_2d'
p56
aS'-Ilib/ros_lib/tests'
p57
aS'-Ilib/ros_lib/ros'
p58
aS'-Ilib/ros_lib/tests/array_test'
p59
aS'-Ilib/ros_lib/tests/float64_test'
p60
aS'-Ilib/ros_lib/tests/time_test'
p61
aS'-I/usr/share/arduino/hardware/arduino/cores/arduino'
p62
aS'-I/usr/share/arduino/hardware/arduino/cores/arduino/avr-libc'
p63
atp64
Rp65
tp66
a(S'cxx'
p67
S'/usr/bin/avr-g++'
p68
tp69
a(S'arduino_libraries_dir'
p70
S'/usr/share/arduino/libraries'
p71
tp72
a(S'avrdude'
p73
S'/usr/share/arduino/hardware/tools/avrdude'
p74
tp75
a(S'ar'
p76
S'/usr/bin/avr-ar'
p77
tp78
a(S'names'
p79
(dp80
S'cpp'
p81
S'%s.cpp'
p82
sS'obj'
p83
S'%s.o'
p84
sS'lib'
p85
S'lib%s.a'
p86
sS'deps'
p87
S'%s.d'
p88
stp89
a(S'ldflags'
p90
g2
(g3
g4
(lp91
g6
aS'-Wl,-Os'
p92
aS'-Wl,--gc-sections'
p93
atp94
Rp95
tp96
a(S'arduino_lib_version'
p97
g2
(cino.environment
Version
p98
c__builtin__
tuple
p99
(I1
I0
I5
tp100
tp101
Rp102
tp103
a(S'objcopy'
p104
S'/usr/bin/avr-objcopy'
p105
tp106
a(S'board_models'
p107
cino.environment
BoardModels
p108
((lp109
(lp110
S'uno'
p111
a(dp112
S'build'
p113
(dp114
S'core'
p115
S'arduino'
p116
sS'mcu'
p117
S'atmega328p'
p118
sS'f_cpu'
p119
S'16000000L'
p120
sS'variant'
p121
S'standard'
p122
ssS'bootloader'
p123
(dp124
S'extended_fuses'
p125
S'0x05'
p126
sS'high_fuses'
p127
S'0xde'
p128
sS'low_fuses'
p129
S'0xff'
p130
sS'lock_bits'
p131
S'0x0F'
p132
sS'file'
p133
S'optiboot_atmega328.hex'
p134
sS'path'
p135
S'optiboot'
p136
sS'unlock_bits'
p137
S'0x3F'
p138
ssS'upload'
p139
(dp140
S'protocol'
p141
S'arduino'
p142
sS'maximum_size'
p143
S'32256'
p144
sS'speed'
p145
S'115200'
p146
ssS'name'
p147
S'Arduino Uno'
p148
saa(lp149
S'atmega328'
p150
a(dp151
S'build'
p152
(dp153
S'core'
p154
S'arduino'
p155
sS'mcu'
p156
S'atmega328p'
p157
sS'f_cpu'
p158
S'16000000L'
p159
sS'variant'
p160
S'standard'
p161
ssS'bootloader'
p162
(dp163
S'extended_fuses'
p164
S'0x05'
p165
sS'high_fuses'
p166
S'0xDA'
p167
sS'low_fuses'
p168
S'0xFF'
p169
sS'lock_bits'
p170
S'0x0F'
p171
sS'file'
p172
S'ATmegaBOOT_168_atmega328.hex'
p173
sS'path'
p174
S'atmega'
p175
sS'unlock_bits'
p176
S'0x3F'
p177
ssS'upload'
p178
(dp179
S'protocol'
p180
S'arduino'
p181
sS'maximum_size'
p182
S'30720'
p183
sS'speed'
p184
S'57600'
p185
ssS'name'
p186
S'Arduino Duemilanove w/ ATmega328'
p187
saa(lp188
S'diecimila'
p189
a(dp190
S'build'
p191
(dp192
S'core'
p193
S'arduino'
p194
sS'mcu'
p195
S'atmega168'
p196
sS'f_cpu'
p197
S'16000000L'
p198
sS'variant'
p199
S'standard'
p200
ssS'bootloader'
p201
(dp202
S'extended_fuses'
p203
S'0x00'
p204
sS'high_fuses'
p205
S'0xdd'
p206
sS'low_fuses'
p207
S'0xff'
p208
sS'lock_bits'
p209
S'0x0F'
p210
sS'file'
p211
S'ATmegaBOOT_168_diecimila.hex'
p212
sS'path'
p213
S'atmega'
p214
sS'unlock_bits'
p215
S'0x3F'
p216
ssS'upload'
p217
(dp218
S'protocol'
p219
S'arduino'
p220
sS'maximum_size'
p221
S'14336'
p222
sS'speed'
p223
S'19200'
p224
ssS'name'
p225
S'Arduino Diecimila or Duemilanove w/ ATmega168'
p226
saa(lp227
S'nano328'
p228
a(dp229
S'build'
p230
(dp231
S'core'
p232
S'arduino'
p233
sS'mcu'
p234
S'atmega328p'
p235
sS'f_cpu'
p236
S'16000000L'
p237
sS'variant'
p238
S'eightanaloginputs'
p239
ssS'bootloader'
p240
(dp241
S'extended_fuses'
p242
S'0x05'
p243
sS'high_fuses'
p244
S'0xDA'
p245
sS'low_fuses'
p246
S'0xFF'
p247
sS'lock_bits'
p248
S'0x0F'
p249
sS'file'
p250
S'ATmegaBOOT_168_atmega328.hex'
p251
sS'path'
p252
S'atmega'
p253
sS'unlock_bits'
p254
S'0x3F'
p255
ssS'upload'
p256
(dp257
S'protocol'
p258
S'arduino'
p259
sS'maximum_size'
p260
S'30720'
p261
sS'speed'
p262
S'57600'
p263
ssS'name'
p264
S'Arduino Nano w/ ATmega328'
p265
saa(lp266
S'nano'
p267
a(dp268
S'build'
p269
(dp270
S'core'
p271
S'arduino'
p272
sS'mcu'
p273
S'atmega168'
p274
sS'f_cpu'
p275
S'16000000L'
p276
sS'variant'
p277
S'eightanaloginputs'
p278
ssS'bootloader'
p279
(dp280
S'extended_fuses'
p281
S'0x00'
p282
sS'high_fuses'
p283
S'0xdd'
p284
sS'low_fuses'
p285
S'0xff'
p286
sS'lock_bits'
p287
S'0x0F'
p288
sS'file'
p289
S'ATmegaBOOT_168_diecimila.hex'
p290
sS'path'
p291
S'atmega'
p292
sS'unlock_bits'
p293
S'0x3F'
p294
ssS'upload'
p295
(dp296
S'protocol'
p297
S'arduino'
p298
sS'maximum_size'
p299
S'14336'
p300
sS'speed'
p301
S'19200'
p302
ssS'name'
p303
S'Arduino Nano w/ ATmega168'
p304
saa(lp305
S'mega2560'
p306
a(dp307
S'build'
p308
(dp309
S'core'
p310
S'arduino'
p311
sS'mcu'
p312
S'atmega2560'
p313
sS'f_cpu'
p314
S'16000000L'
p315
sS'variant'
p316
S'mega'
p317
ssS'bootloader'
p318
(dp319
S'extended_fuses'
p320
S'0xFD'
p321
sS'high_fuses'
p322
S'0xD8'
p323
sS'low_fuses'
p324
S'0xFF'
p325
sS'lock_bits'
p326
S'0x0F'
p327
sS'file'
p328
S'stk500boot_v2_mega2560.hex'
p329
sS'path'
p330
S'stk500v2'
p331
sS'unlock_bits'
p332
S'0x3F'
p333
ssS'upload'
p334
(dp335
S'protocol'
p336
S'wiring'
p337
sS'maximum_size'
p338
S'258048'
p339
sS'speed'
p340
S'115200'
p341
ssS'name'
p342
S'Arduino Mega 2560 or Mega ADK'
p343
saa(lp344
S'mega'
p345
a(dp346
S'build'
p347
(dp348
S'core'
p349
S'arduino'
p350
sS'mcu'
p351
S'atmega1280'
p352
sS'f_cpu'
p353
S'16000000L'
p354
sS'variant'
p355
S'mega'
p356
ssS'bootloader'
p357
(dp358
S'extended_fuses'
p359
S'0xF5'
p360
sS'high_fuses'
p361
S'0xDA'
p362
sS'low_fuses'
p363
S'0xFF'
p364
sS'lock_bits'
p365
S'0x0F'
p366
sS'file'
p367
S'ATmegaBOOT_168_atmega1280.hex'
p368
sS'path'
p369
S'atmega'
p370
sS'unlock_bits'
p371
S'0x3F'
p372
ssS'upload'
p373
(dp374
S'protocol'
p375
S'arduino'
p376
sS'maximum_size'
p377
S'126976'
p378
sS'speed'
p379
S'57600'
p380
ssS'name'
p381
S'Arduino Mega (ATmega1280)'
p382
saa(lp383
S'leonardo'
p384
a(dp385
S'build'
p386
(dp387
S'core'
p388
S'arduino'
p389
sS'f_cpu'
p390
S'16000000L'
p391
sS'vid'
p392
S'0x2341'
p393
sS'pid'
p394
S'0x8036'
p395
sS'variant'
p396
S'leonardo'
p397
sS'mcu'
p398
S'atmega32u4'
p399
ssS'bootloader'
p400
(dp401
S'extended_fuses'
p402
S'0xcb'
p403
sS'high_fuses'
p404
S'0xd8'
p405
sS'low_fuses'
p406
S'0xff'
p407
sS'lock_bits'
p408
S'0x2F'
p409
sS'file'
p410
S'Caterina-Leonardo.hex'
p411
sS'path'
p412
S'caterina'
p413
sS'unlock_bits'
p414
S'0x3F'
p415
ssS'upload'
p416
(dp417
S'protocol'
p418
S'avr109'
p419
sS'maximum_size'
p420
S'28672'
p421
sS'speed'
p422
S'57600'
p423
sS'disable_flushing'
p424
S'true'
p425
ssS'name'
p426
S'Arduino Leonardo'
p427
saa(lp428
S'esplora'
p429
a(dp430
S'build'
p431
(dp432
S'core'
p433
S'arduino'
p434
sS'f_cpu'
p435
S'16000000L'
p436
sS'vid'
p437
S'0x2341'
p438
sS'pid'
p439
S'0x803C'
p440
sS'variant'
p441
S'leonardo'
p442
sS'mcu'
p443
S'atmega32u4'
p444
ssS'bootloader'
p445
(dp446
S'extended_fuses'
p447
S'0xcb'
p448
sS'high_fuses'
p449
S'0xd8'
p450
sS'low_fuses'
p451
S'0xff'
p452
sS'lock_bits'
p453
S'0x2F'
p454
sS'file'
p455
S'Caterina-Esplora.hex'
p456
sS'path'
p457
S'caterina'
p458
sS'unlock_bits'
p459
S'0x3F'
p460
ssS'upload'
p461
(dp462
S'protocol'
p463
S'avr109'
p464
sS'maximum_size'
p465
S'28672'
p466
sS'speed'
p467
S'57600'
p468
sS'disable_flushing'
p469
S'true'
p470
ssS'name'
p471
S'Arduino Esplora'
p472
saa(lp473
S'micro'
p474
a(dp475
S'build'
p476
(dp477
S'core'
p478
S'arduino'
p479
sS'f_cpu'
p480
S'16000000L'
p481
sS'vid'
p482
S'0x2341'
p483
sS'pid'
p484
S'0x8037'
p485
sS'variant'
p486
S'micro'
p487
sS'mcu'
p488
S'atmega32u4'
p489
ssS'bootloader'
p490
(dp491
S'extended_fuses'
p492
S'0xcb'
p493
sS'high_fuses'
p494
S'0xd8'
p495
sS'low_fuses'
p496
S'0xff'
p497
sS'lock_bits'
p498
S'0x2F'
p499
sS'file'
p500
S'Caterina-Micro.hex'
p501
sS'path'
p502
S'caterina'
p503
sS'unlock_bits'
p504
S'0x3F'
p505
ssS'upload'
p506
(dp507
S'protocol'
p508
S'avr109'
p509
sS'maximum_size'
p510
S'28672'
p511
sS'speed'
p512
S'57600'
p513
sS'disable_flushing'
p514
S'true'
p515
ssS'name'
p516
S'Arduino Micro'
p517
saa(lp518
S'mini328'
p519
a(dp520
S'build'
p521
(dp522
S'core'
p523
S'arduino'
p524
sS'mcu'
p525
S'atmega328p'
p526
sS'f_cpu'
p527
S'16000000L'
p528
sS'variant'
p529
S'eightanaloginputs'
p530
ssS'bootloader'
p531
(dp532
S'extended_fuses'
p533
S'0x05'
p534
sS'high_fuses'
p535
S'0xd8'
p536
sS'low_fuses'
p537
S'0xff'
p538
sS'lock_bits'
p539
S'0x0F'
p540
sS'file'
p541
S'optiboot_atmega328-Mini.hex'
p542
sS'path'
p543
S'optiboot'
p544
sS'unlock_bits'
p545
S'0x3F'
p546
ssS'upload'
p547
(dp548
S'protocol'
p549
S'arduino'
p550
sS'maximum_size'
p551
S'28672'
p552
sS'speed'
p553
S'115200'
p554
ssS'name'
p555
S'Arduino Mini w/ ATmega328'
p556
saa(lp557
S'mini'
p558
a(dp559
S'build'
p560
(dp561
S'core'
p562
S'arduino'
p563
sS'mcu'
p564
S'atmega168'
p565
sS'f_cpu'
p566
S'16000000L'
p567
sS'variant'
p568
S'eightanaloginputs'
p569
ssS'bootloader'
p570
(dp571
S'extended_fuses'
p572
S'0x00'
p573
sS'high_fuses'
p574
S'0xdd'
p575
sS'low_fuses'
p576
S'0xff'
p577
sS'lock_bits'
p578
S'0x0F'
p579
sS'file'
p580
S'ATmegaBOOT_168_ng.hex'
p581
sS'path'
p582
S'atmega'
p583
sS'unlock_bits'
p584
S'0x3F'
p585
ssS'upload'
p586
(dp587
S'protocol'
p588
S'arduino'
p589
sS'maximum_size'
p590
S'14336'
p591
sS'speed'
p592
S'19200'
p593
ssS'name'
p594
S'Arduino Mini w/ ATmega168'
p595
saa(lp596
S'ethernet'
p597
a(dp598
S'build'
p599
(dp600
S'variant'
p601
S'standard'
p602
sS'mcu'
p603
S'atmega328p'
p604
sS'f_cpu'
p605
S'16000000L'
p606
sS'core'
p607
S'arduino'
p608
ssS'bootloader'
p609
(dp610
S'extended_fuses'
p611
S'0x05'
p612
sS'high_fuses'
p613
S'0xde'
p614
sS'low_fuses'
p615
S'0xff'
p616
sS'lock_bits'
p617
S'0x0F'
p618
sS'file'
p619
S'optiboot_atmega328.hex'
p620
sS'path'
p621
S'optiboot'
p622
sS'unlock_bits'
p623
S'0x3F'
p624
ssS'upload'
p625
(dp626
S'protocol'
p627
S'arduino'
p628
sS'maximum_size'
p629
S'32256'
p630
sS'speed'
p631
S'115200'
p632
ssS'name'
p633
S'Arduino Ethernet'
p634
saa(lp635
S'fio'
p636
a(dp637
S'build'
p638
(dp639
S'core'
p640
S'arduino'
p641
sS'mcu'
p642
S'atmega328p'
p643
sS'f_cpu'
p644
S'8000000L'
p645
sS'variant'
p646
S'eightanaloginputs'
p647
ssS'bootloader'
p648
(dp649
S'extended_fuses'
p650
S'0x05'
p651
sS'high_fuses'
p652
S'0xDA'
p653
sS'low_fuses'
p654
S'0xFF'
p655
sS'lock_bits'
p656
S'0x0F'
p657
sS'file'
p658
S'ATmegaBOOT_168_atmega328_pro_8MHz.hex'
p659
sS'path'
p660
S'arduino:atmega'
p661
sS'unlock_bits'
p662
S'0x3F'
p663
ssS'upload'
p664
(dp665
S'protocol'
p666
S'arduino'
p667
sS'maximum_size'
p668
S'30720'
p669
sS'speed'
p670
S'57600'
p671
ssS'name'
p672
S'Arduino Fio'
p673
saa(lp674
S'bt328'
p675
a(dp676
S'build'
p677
(dp678
S'core'
p679
S'arduino'
p680
sS'mcu'
p681
S'atmega328p'
p682
sS'f_cpu'
p683
S'16000000L'
p684
sS'variant'
p685
S'eightanaloginputs'
p686
ssS'bootloader'
p687
(dp688
S'extended_fuses'
p689
S'0x05'
p690
sS'high_fuses'
p691
S'0xd8'
p692
sS'low_fuses'
p693
S'0xff'
p694
sS'lock_bits'
p695
S'0x0F'
p696
sS'file'
p697
S'ATmegaBOOT_168_atmega328_bt.hex'
p698
sS'path'
p699
S'bt'
p700
sS'unlock_bits'
p701
S'0x3F'
p702
ssS'upload'
p703
(dp704
S'protocol'
p705
S'arduino'
p706
sS'maximum_size'
p707
S'28672'
p708
sS'speed'
p709
S'19200'
p710
sS'disable_flushing'
p711
S'true'
p712
ssS'name'
p713
S'Arduino BT w/ ATmega328'
p714
saa(lp715
S'bt'
p716
a(dp717
S'build'
p718
(dp719
S'core'
p720
S'arduino'
p721
sS'mcu'
p722
S'atmega168'
p723
sS'f_cpu'
p724
S'16000000L'
p725
sS'variant'
p726
S'eightanaloginputs'
p727
ssS'bootloader'
p728
(dp729
S'extended_fuses'
p730
S'0x00'
p731
sS'high_fuses'
p732
S'0xdd'
p733
sS'low_fuses'
p734
S'0xff'
p735
sS'lock_bits'
p736
S'0x0F'
p737
sS'file'
p738
S'ATmegaBOOT_168.hex'
p739
sS'path'
p740
S'bt'
p741
sS'unlock_bits'
p742
S'0x3F'
p743
ssS'upload'
p744
(dp745
S'protocol'
p746
S'arduino'
p747
sS'maximum_size'
p748
S'14336'
p749
sS'speed'
p750
S'19200'
p751
sS'disable_flushing'
p752
S'true'
p753
ssS'name'
p754
S'Arduino BT w/ ATmega168'
p755
saa(lp756
S'LilyPadUSB'
p757
a(dp758
S'build'
p759
(dp760
S'core'
p761
S'arduino'
p762
sS'f_cpu'
p763
S'8000000L'
p764
sS'vid'
p765
S'0x1B4F'
p766
sS'pid'
p767
S'0x9208'
p768
sS'variant'
p769
S'leonardo'
p770
sS'mcu'
p771
S'atmega32u4'
p772
ssS'bootloader'
p773
(dp774
S'extended_fuses'
p775
S'0xce'
p776
sS'high_fuses'
p777
S'0xd8'
p778
sS'low_fuses'
p779
S'0xff'
p780
sS'lock_bits'
p781
S'0x2F'
p782
sS'file'
p783
S'Caterina-LilyPadUSB.hex'
p784
sS'path'
p785
S'caterina-LilyPadUSB'
p786
sS'unlock_bits'
p787
S'0x3F'
p788
ssS'upload'
p789
(dp790
S'protocol'
p791
S'avr109'
p792
sS'maximum_size'
p793
S'28672'
p794
sS'speed'
p795
S'57600'
p796
sS'disable_flushing'
p797
S'true'
p798
ssS'name'
p799
S'LilyPad Arduino USB'
p800
saa(lp801
S'lilypad328'
p802
a(dp803
S'build'
p804
(dp805
S'core'
p806
S'arduino'
p807
sS'mcu'
p808
S'atmega328p'
p809
sS'f_cpu'
p810
S'8000000L'
p811
sS'variant'
p812
S'standard'
p813
ssS'bootloader'
p814
(dp815
S'extended_fuses'
p816
S'0x05'
p817
sS'high_fuses'
p818
S'0xDA'
p819
sS'low_fuses'
p820
S'0xFF'
p821
sS'lock_bits'
p822
S'0x0F'
p823
sS'file'
p824
S'ATmegaBOOT_168_atmega328_pro_8MHz.hex'
p825
sS'path'
p826
S'atmega'
p827
sS'unlock_bits'
p828
S'0x3F'
p829
ssS'upload'
p830
(dp831
S'protocol'
p832
S'arduino'
p833
sS'maximum_size'
p834
S'30720'
p835
sS'speed'
p836
S'57600'
p837
ssS'name'
p838
S'LilyPad Arduino w/ ATmega328'
p839
saa(lp840
S'lilypad'
p841
a(dp842
S'build'
p843
(dp844
S'core'
p845
S'arduino'
p846
sS'mcu'
p847
S'atmega168'
p848
sS'f_cpu'
p849
S'8000000L'
p850
sS'variant'
p851
S'standard'
p852
ssS'bootloader'
p853
(dp854
S'extended_fuses'
p855
S'0x00'
p856
sS'high_fuses'
p857
S'0xdd'
p858
sS'low_fuses'
p859
S'0xe2'
p860
sS'lock_bits'
p861
S'0x0F'
p862
sS'file'
p863
S'LilyPadBOOT_168.hex'
p864
sS'path'
p865
S'lilypad'
p866
sS'unlock_bits'
p867
S'0x3F'
p868
ssS'upload'
p869
(dp870
S'protocol'
p871
S'arduino'
p872
sS'maximum_size'
p873
S'14336'
p874
sS'speed'
p875
S'19200'
p876
ssS'name'
p877
S'LilyPad Arduino w/ ATmega168'
p878
saa(lp879
S'pro5v328'
p880
a(dp881
S'build'
p882
(dp883
S'core'
p884
S'arduino'
p885
sS'mcu'
p886
S'atmega328p'
p887
sS'f_cpu'
p888
S'16000000L'
p889
sS'variant'
p890
S'standard'
p891
ssS'bootloader'
p892
(dp893
S'extended_fuses'
p894
S'0x05'
p895
sS'high_fuses'
p896
S'0xDA'
p897
sS'low_fuses'
p898
S'0xFF'
p899
sS'lock_bits'
p900
S'0x0F'
p901
sS'file'
p902
S'ATmegaBOOT_168_atmega328.hex'
p903
sS'path'
p904
S'atmega'
p905
sS'unlock_bits'
p906
S'0x3F'
p907
ssS'upload'
p908
(dp909
S'protocol'
p910
S'arduino'
p911
sS'maximum_size'
p912
S'30720'
p913
sS'speed'
p914
S'57600'
p915
ssS'name'
p916
S'Arduino Pro or Pro Mini (5V, 16 MHz) w/ ATmega328'
p917
saa(lp918
S'pro5v'
p919
a(dp920
S'build'
p921
(dp922
S'core'
p923
S'arduino'
p924
sS'mcu'
p925
S'atmega168'
p926
sS'f_cpu'
p927
S'16000000L'
p928
sS'variant'
p929
S'standard'
p930
ssS'bootloader'
p931
(dp932
S'extended_fuses'
p933
S'0x00'
p934
sS'high_fuses'
p935
S'0xdd'
p936
sS'low_fuses'
p937
S'0xff'
p938
sS'lock_bits'
p939
S'0x0F'
p940
sS'file'
p941
S'ATmegaBOOT_168_diecimila.hex'
p942
sS'path'
p943
S'atmega'
p944
sS'unlock_bits'
p945
S'0x3F'
p946
ssS'upload'
p947
(dp948
S'protocol'
p949
S'arduino'
p950
sS'maximum_size'
p951
S'14336'
p952
sS'speed'
p953
S'19200'
p954
ssS'name'
p955
S'Arduino Pro or Pro Mini (5V, 16 MHz) w/ ATmega168'
p956
saa(lp957
S'pro328'
p958
a(dp959
S'build'
p960
(dp961
S'core'
p962
S'arduino'
p963
sS'mcu'
p964
S'atmega328p'
p965
sS'f_cpu'
p966
S'8000000L'
p967
sS'variant'
p968
S'standard'
p969
ssS'bootloader'
p970
(dp971
S'extended_fuses'
p972
S'0x05'
p973
sS'high_fuses'
p974
S'0xDA'
p975
sS'low_fuses'
p976
S'0xFF'
p977
sS'lock_bits'
p978
S'0x0F'
p979
sS'file'
p980
S'ATmegaBOOT_168_atmega328_pro_8MHz.hex'
p981
sS'path'
p982
S'atmega'
p983
sS'unlock_bits'
p984
S'0x3F'
p985
ssS'upload'
p986
(dp987
S'protocol'
p988
S'arduino'
p989
sS'maximum_size'
p990
S'30720'
p991
sS'speed'
p992
S'57600'
p993
ssS'name'
p994
S'Arduino Pro or Pro Mini (3.3V, 8 MHz) w/ ATmega328'
p995
saa(lp996
S'pro'
p997
a(dp998
S'build'
p999
(dp1000
S'core'
p1001
S'arduino'
p1002
sS'mcu'
p1003
S'atmega168'
p1004
sS'f_cpu'
p1005
S'8000000L'
p1006
sS'variant'
p1007
S'standard'
p1008
ssS'bootloader'
p1009
(dp1010
S'extended_fuses'
p1011
S'0x00'
p1012
sS'high_fuses'
p1013
S'0xdd'
p1014
sS'low_fuses'
p1015
S'0xc6'
p1016
sS'lock_bits'
p1017
S'0x0F'
p1018
sS'file'
p1019
S'ATmegaBOOT_168_pro_8MHz.hex'
p1020
sS'path'
p1021
S'atmega'
p1022
sS'unlock_bits'
p1023
S'0x3F'
p1024
ssS'upload'
p1025
(dp1026
S'protocol'
p1027
S'arduino'
p1028
sS'maximum_size'
p1029
S'14336'
p1030
sS'speed'
p1031
S'19200'
p1032
ssS'name'
p1033
S'Arduino Pro or Pro Mini (3.3V, 8 MHz) w/ ATmega168'
p1034
saa(lp1035
S'atmega168'
p1036
a(dp1037
S'build'
p1038
(dp1039
S'core'
p1040
S'arduino'
p1041
sS'mcu'
p1042
S'atmega168'
p1043
sS'f_cpu'
p1044
S'16000000L'
p1045
sS'variant'
p1046
S'standard'
p1047
ssS'bootloader'
p1048
(dp1049
S'extended_fuses'
p1050
S'0x00'
p1051
sS'high_fuses'
p1052
S'0xdd'
p1053
sS'low_fuses'
p1054
S'0xff'
p1055
sS'lock_bits'
p1056
S'0x0F'
p1057
sS'file'
p1058
S'ATmegaBOOT_168_ng.hex'
p1059
sS'path'
p1060
S'atmega'
p1061
sS'unlock_bits'
p1062
S'0x3F'
p1063
ssS'upload'
p1064
(dp1065
S'protocol'
p1066
S'arduino'
p1067
sS'maximum_size'
p1068
S'14336'
p1069
sS'speed'
p1070
S'19200'
p1071
ssS'name'
p1072
S'Arduino NG or older w/ ATmega168'
p1073
saa(lp1074
S'atmega8'
p1075
a(dp1076
S'build'
p1077
(dp1078
S'core'
p1079
S'arduino'
p1080
sS'mcu'
p1081
S'atmega8'
p1082
sS'f_cpu'
p1083
S'16000000L'
p1084
sS'variant'
p1085
S'standard'
p1086
ssS'bootloader'
p1087
(dp1088
S'high_fuses'
p1089
S'0xca'
p1090
sS'low_fuses'
p1091
S'0xdf'
p1092
sS'lock_bits'
p1093
S'0x0F'
p1094
sS'file'
p1095
S'ATmegaBOOT-prod-firmware-2009-11-07.hex'
p1096
sS'path'
p1097
S'atmega8'
p1098
sS'unlock_bits'
p1099
S'0x3F'
p1100
ssS'upload'
p1101
(dp1102
S'protocol'
p1103
S'arduino'
p1104
sS'maximum_size'
p1105
S'7168'
p1106
sS'speed'
p1107
S'19200'
p1108
ssS'name'
p1109
S'Arduino NG or older w/ ATmega8'
p1110
saa(lp1111
S'robotControl'
p1112
a(dp1113
S'build'
p1114
(dp1115
S'core'
p1116
S'robot'
p1117
sS'f_cpu'
p1118
S'16000000L'
p1119
sS'vid'
p1120
S'0x2341'
p1121
sS'pid'
p1122
S'0x8038'
p1123
sS'variant'
p1124
S'robot_control'
p1125
sS'mcu'
p1126
S'atmega32u4'
p1127
ssS'bootloader'
p1128
(dp1129
S'extended_fuses'
p1130
S'0xcb'
p1131
sS'high_fuses'
p1132
S'0xd8'
p1133
sS'low_fuses'
p1134
S'0xff'
p1135
sS'lock_bits'
p1136
S'0x2F'
p1137
sS'file'
p1138
S'Caterina-Robot-Control.hex'
p1139
sS'path'
p1140
S'caterina-Arduino_Robot'
p1141
sS'unlock_bits'
p1142
S'0x3F'
p1143
ssS'upload'
p1144
(dp1145
S'protocol'
p1146
S'avr109'
p1147
sS'maximum_size'
p1148
S'28672'
p1149
sS'speed'
p1150
S'57600'
p1151
sS'disable_flushing'
p1152
S'true'
p1153
ssS'name'
p1154
S'Arduino Robot Control'
p1155
saa(lp1156
S'robotMotor'
p1157
a(dp1158
S'build'
p1159
(dp1160
S'core'
p1161
S'robot'
p1162
sS'f_cpu'
p1163
S'16000000L'
p1164
sS'vid'
p1165
S'0x2341'
p1166
sS'pid'
p1167
S'0x8039'
p1168
sS'variant'
p1169
S'robot_motor'
p1170
sS'mcu'
p1171
S'atmega32u4'
p1172
ssS'bootloader'
p1173
(dp1174
S'extended_fuses'
p1175
S'0xcb'
p1176
sS'high_fuses'
p1177
S'0xd8'
p1178
sS'low_fuses'
p1179
S'0xff'
p1180
sS'lock_bits'
p1181
S'0x2F'
p1182
sS'file'
p1183
S'Caterina-Robot-Motor.hex'
p1184
sS'path'
p1185
S'caterina-Arduino_Robot'
p1186
sS'unlock_bits'
p1187
S'0x3F'
p1188
ssS'upload'
p1189
(dp1190
S'protocol'
p1191
S'avr109'
p1192
sS'maximum_size'
p1193
S'28672'
p1194
sS'speed'
p1195
S'57600'
p1196
sS'disable_flushing'
p1197
S'true'
p1198
ssS'name'
p1199
S'Arduino Robot Motor'
p1200
saatp1201
Rp1202
(dp1203
S'default'
p1204
S'uno'
p1205
sbtp1206
a(S'used_libs'
p1207
(lp1208
S'lib/ros_lib'
p1209
aS'/usr/share/arduino/hardware/arduino/cores/arduino'
p1210
atp1211
a(S'make'
p1212
S'/usr/bin/make'
p1213
tp1214
a(S'build_dir'
p1215
S'.build/pro5v328'
p1216
tp1217
a(S'cc'
p1218
S'/usr/bin/avr-gcc'
p1219
tp1220
a(S'cflags'
p1221
g2
(g3
g4
(lp1222
tp1223
Rp1224
tp1225
a(S'cxxflags'
p1226
g2
(g3
g4
(lp1227
S'-fno-exceptions'
p1228
atp1229
Rp1230
tp1231
a(S'arduino_variants_dir'
p1232
S'/usr/share/arduino/hardware/arduino/variants'
p1233
tp1234
a(S'stty'
p1235
S'/bin/stty'
p1236
tp1237
a(S'version.txt'
p1238
S'/usr/share/arduino/lib/version.txt'
p1239
tp1240
a(S'arduino_core_dir'
p1241
g1210
tp1242
a(S'boards.txt'
p1243
S'/usr/share/arduino/hardware/arduino/boards.txt'
p1244
tp1245
a(S'avrdude.conf'
p1246
S'/usr/share/arduino/hardware/tools/avrdude.conf'
p1247
tp1248
a(S'deps'
p1249
g2
(g3
g4
(lp1250
S'.build/pro5v328/src/dependencies.d'
p1251
aS'.build/pro5v328/arduino/dependencies.d'
p1252
aS'.build/pro5v328/ros_lib/dependencies.d'
p1253
atp1254
Rp1255
tp1256
a.