(lp0
(S'cppflags'
p1
ccopy_reg
_reconstructor
p2
(cino.utils
SpaceList
p3
c__builtin__
list
p4
(lp5
S'-mmcu=atmega328p'
p6
aS'-DF_CPU=16000000L'
p7
aS'-DARDUINO=105'
p8
aS'-I/usr/share/arduino/hardware/arduino/cores/arduino'
p9
aS'-ffunction-sections'
p10
aS'-fdata-sections'
p11
aS'-g'
p12
aS'-Os'
p13
aS'-w'
p14
aS'-I/usr/share/arduino/hardware/arduino/variants/standard'
p15
aS'-Ilib/ros_lib'
p16
aS'-Ilib/ros_lib/mega_caretaker'
p17
aS'-Ilib/ros_lib/smach_msgs'
p18
aS'-Ilib/ros_lib/tests'
p19
aS'-Ilib/ros_lib/actionlib_tutorials'
p20
aS'-Ilib/ros_lib/rosgraph_msgs'
p21
aS'-Ilib/ros_lib/rosserial_arduino'
p22
aS'-Ilib/ros_lib/roscpp_tutorials'
p23
aS'-Ilib/ros_lib/pcl_msgs'
p24
aS'-Ilib/ros_lib/imu_filter_madgwick'
p25
aS'-Ilib/ros_lib/driver_base'
p26
aS'-Ilib/ros_lib/dynamic_reconfigure'
p27
aS'-Ilib/ros_lib/base_local_planner'
p28
aS'-Ilib/ros_lib/costmap_2d'
p29
aS'-Ilib/ros_lib/laser_assembler'
p30
aS'-Ilib/ros_lib/stereo_msgs'
p31
aS'-Ilib/ros_lib/wesley'
p32
aS'-Ilib/ros_lib/diagnostic_msgs'
p33
aS'-Ilib/ros_lib/sensor_msgs'
p34
aS'-Ilib/ros_lib/nodelet'
p35
aS'-Ilib/ros_lib/std_srvs'
p36
aS'-Ilib/ros_lib/theora_image_transport'
p37
aS'-Ilib/ros_lib/trajectory_msgs'
p38
aS'-Ilib/ros_lib/nav_msgs'
p39
aS'-Ilib/ros_lib/polled_camera'
p40
aS'-Ilib/ros_lib/actionlib_msgs'
p41
aS'-Ilib/ros_lib/control_msgs'
p42
aS'-Ilib/ros_lib/turtlesim'
p43
aS'-Ilib/ros_lib/std_msgs'
p44
aS'-Ilib/ros_lib/actionlib'
p45
aS'-Ilib/ros_lib/topic_tools'
p46
aS'-Ilib/ros_lib/rosserial_msgs'
p47
aS'-Ilib/ros_lib/rospy_tutorials'
p48
aS'-Ilib/ros_lib/visualization_msgs'
p49
aS'-Ilib/ros_lib/tf2_msgs'
p50
aS'-Ilib/ros_lib/ros'
p51
aS'-Ilib/ros_lib/robot_pose_ekf'
p52
aS'-Ilib/ros_lib/shape_msgs'
p53
aS'-Ilib/ros_lib/navfn'
p54
aS'-Ilib/ros_lib/gazebo_msgs'
p55
aS'-Ilib/ros_lib/tf'
p56
aS'-Ilib/ros_lib/roscpp'
p57
aS'-Ilib/ros_lib/bond'
p58
aS'-Ilib/ros_lib/geometry_msgs'
p59
aS'-Ilib/ros_lib/turtle_actionlib'
p60
aS'-Ilib/ros_lib/move_base_msgs'
p61
aS'-Ilib/ros_lib/tests/array_test'
p62
aS'-Ilib/ros_lib/tests/float64_test'
p63
aS'-Ilib/ros_lib/tests/time_test'
p64
aS'-I/usr/share/arduino/hardware/arduino/cores/arduino'
p65
atp66
Rp67
tp68
a(S'cxx'
p69
S'/usr/bin/avr-g++'
p70
tp71
a(S'arduino_libraries_dir'
p72
S'/usr/share/arduino/libraries'
p73
tp74
a(S'avrdude'
p75
S'/usr/share/arduino/hardware/tools/avrdude'
p76
tp77
a(S'ar'
p78
S'/usr/bin/avr-ar'
p79
tp80
a(S'names'
p81
(dp82
S'cpp'
p83
S'%s.cpp'
p84
sS'obj'
p85
S'%s.o'
p86
sS'lib'
p87
S'lib%s.a'
p88
sS'deps'
p89
S'%s.d'
p90
stp91
a(S'ldflags'
p92
g2
(g3
g4
(lp93
g6
aS'-Wl,-Os'
p94
aS'-Wl,--gc-sections'
p95
atp96
Rp97
tp98
a(S'arduino_lib_version'
p99
g2
(cino.environment
Version
p100
c__builtin__
tuple
p101
(I1
I0
I5
tp102
tp103
Rp104
tp105
a(S'objcopy'
p106
S'/usr/bin/avr-objcopy'
p107
tp108
a(S'board_models'
p109
cino.environment
BoardModels
p110
((lp111
(lp112
S'uno'
p113
a(dp114
S'build'
p115
(dp116
S'core'
p117
S'arduino'
p118
sS'mcu'
p119
S'atmega328p'
p120
sS'f_cpu'
p121
S'16000000L'
p122
sS'variant'
p123
S'standard'
p124
ssS'bootloader'
p125
(dp126
S'extended_fuses'
p127
S'0x05'
p128
sS'high_fuses'
p129
S'0xde'
p130
sS'low_fuses'
p131
S'0xff'
p132
sS'lock_bits'
p133
S'0x0F'
p134
sS'file'
p135
S'optiboot_atmega328.hex'
p136
sS'path'
p137
S'optiboot'
p138
sS'unlock_bits'
p139
S'0x3F'
p140
ssS'upload'
p141
(dp142
S'protocol'
p143
S'arduino'
p144
sS'maximum_size'
p145
S'32256'
p146
sS'speed'
p147
S'115200'
p148
ssS'name'
p149
S'Arduino Uno'
p150
saa(lp151
S'atmega328'
p152
a(dp153
S'build'
p154
(dp155
S'core'
p156
S'arduino'
p157
sS'mcu'
p158
S'atmega328p'
p159
sS'f_cpu'
p160
S'16000000L'
p161
sS'variant'
p162
S'standard'
p163
ssS'bootloader'
p164
(dp165
S'extended_fuses'
p166
S'0x05'
p167
sS'high_fuses'
p168
S'0xDA'
p169
sS'low_fuses'
p170
S'0xFF'
p171
sS'lock_bits'
p172
S'0x0F'
p173
sS'file'
p174
S'ATmegaBOOT_168_atmega328.hex'
p175
sS'path'
p176
S'atmega'
p177
sS'unlock_bits'
p178
S'0x3F'
p179
ssS'upload'
p180
(dp181
S'protocol'
p182
S'arduino'
p183
sS'maximum_size'
p184
S'30720'
p185
sS'speed'
p186
S'57600'
p187
ssS'name'
p188
S'Arduino Duemilanove w/ ATmega328'
p189
saa(lp190
S'diecimila'
p191
a(dp192
S'build'
p193
(dp194
S'core'
p195
S'arduino'
p196
sS'mcu'
p197
S'atmega168'
p198
sS'f_cpu'
p199
S'16000000L'
p200
sS'variant'
p201
S'standard'
p202
ssS'bootloader'
p203
(dp204
S'extended_fuses'
p205
S'0x00'
p206
sS'high_fuses'
p207
S'0xdd'
p208
sS'low_fuses'
p209
S'0xff'
p210
sS'lock_bits'
p211
S'0x0F'
p212
sS'file'
p213
S'ATmegaBOOT_168_diecimila.hex'
p214
sS'path'
p215
S'atmega'
p216
sS'unlock_bits'
p217
S'0x3F'
p218
ssS'upload'
p219
(dp220
S'protocol'
p221
S'arduino'
p222
sS'maximum_size'
p223
S'14336'
p224
sS'speed'
p225
S'19200'
p226
ssS'name'
p227
S'Arduino Diecimila or Duemilanove w/ ATmega168'
p228
saa(lp229
S'nano328'
p230
a(dp231
S'build'
p232
(dp233
S'core'
p234
S'arduino'
p235
sS'mcu'
p236
S'atmega328p'
p237
sS'f_cpu'
p238
S'16000000L'
p239
sS'variant'
p240
S'eightanaloginputs'
p241
ssS'bootloader'
p242
(dp243
S'extended_fuses'
p244
S'0x05'
p245
sS'high_fuses'
p246
S'0xDA'
p247
sS'low_fuses'
p248
S'0xFF'
p249
sS'lock_bits'
p250
S'0x0F'
p251
sS'file'
p252
S'ATmegaBOOT_168_atmega328.hex'
p253
sS'path'
p254
S'atmega'
p255
sS'unlock_bits'
p256
S'0x3F'
p257
ssS'upload'
p258
(dp259
S'protocol'
p260
S'arduino'
p261
sS'maximum_size'
p262
S'30720'
p263
sS'speed'
p264
S'57600'
p265
ssS'name'
p266
S'Arduino Nano w/ ATmega328'
p267
saa(lp268
S'nano'
p269
a(dp270
S'build'
p271
(dp272
S'core'
p273
S'arduino'
p274
sS'mcu'
p275
S'atmega168'
p276
sS'f_cpu'
p277
S'16000000L'
p278
sS'variant'
p279
S'eightanaloginputs'
p280
ssS'bootloader'
p281
(dp282
S'extended_fuses'
p283
S'0x00'
p284
sS'high_fuses'
p285
S'0xdd'
p286
sS'low_fuses'
p287
S'0xff'
p288
sS'lock_bits'
p289
S'0x0F'
p290
sS'file'
p291
S'ATmegaBOOT_168_diecimila.hex'
p292
sS'path'
p293
S'atmega'
p294
sS'unlock_bits'
p295
S'0x3F'
p296
ssS'upload'
p297
(dp298
S'protocol'
p299
S'arduino'
p300
sS'maximum_size'
p301
S'14336'
p302
sS'speed'
p303
S'19200'
p304
ssS'name'
p305
S'Arduino Nano w/ ATmega168'
p306
saa(lp307
S'mega2560'
p308
a(dp309
S'build'
p310
(dp311
S'core'
p312
S'arduino'
p313
sS'mcu'
p314
S'atmega2560'
p315
sS'f_cpu'
p316
S'16000000L'
p317
sS'variant'
p318
S'mega'
p319
ssS'bootloader'
p320
(dp321
S'extended_fuses'
p322
S'0xFD'
p323
sS'high_fuses'
p324
S'0xD8'
p325
sS'low_fuses'
p326
S'0xFF'
p327
sS'lock_bits'
p328
S'0x0F'
p329
sS'file'
p330
S'stk500boot_v2_mega2560.hex'
p331
sS'path'
p332
S'stk500v2'
p333
sS'unlock_bits'
p334
S'0x3F'
p335
ssS'upload'
p336
(dp337
S'protocol'
p338
S'wiring'
p339
sS'maximum_size'
p340
S'258048'
p341
sS'speed'
p342
S'115200'
p343
ssS'name'
p344
S'Arduino Mega 2560 or Mega ADK'
p345
saa(lp346
S'mega'
p347
a(dp348
S'build'
p349
(dp350
S'core'
p351
S'arduino'
p352
sS'mcu'
p353
S'atmega1280'
p354
sS'f_cpu'
p355
S'16000000L'
p356
sS'variant'
p357
S'mega'
p358
ssS'bootloader'
p359
(dp360
S'extended_fuses'
p361
S'0xF5'
p362
sS'high_fuses'
p363
S'0xDA'
p364
sS'low_fuses'
p365
S'0xFF'
p366
sS'lock_bits'
p367
S'0x0F'
p368
sS'file'
p369
S'ATmegaBOOT_168_atmega1280.hex'
p370
sS'path'
p371
S'atmega'
p372
sS'unlock_bits'
p373
S'0x3F'
p374
ssS'upload'
p375
(dp376
S'protocol'
p377
S'arduino'
p378
sS'maximum_size'
p379
S'126976'
p380
sS'speed'
p381
S'57600'
p382
ssS'name'
p383
S'Arduino Mega (ATmega1280)'
p384
saa(lp385
S'leonardo'
p386
a(dp387
S'build'
p388
(dp389
S'core'
p390
S'arduino'
p391
sS'f_cpu'
p392
S'16000000L'
p393
sS'vid'
p394
S'0x2341'
p395
sS'pid'
p396
S'0x8036'
p397
sS'variant'
p398
S'leonardo'
p399
sS'mcu'
p400
S'atmega32u4'
p401
ssS'bootloader'
p402
(dp403
S'extended_fuses'
p404
S'0xcb'
p405
sS'high_fuses'
p406
S'0xd8'
p407
sS'low_fuses'
p408
S'0xff'
p409
sS'lock_bits'
p410
S'0x2F'
p411
sS'file'
p412
S'Caterina-Leonardo.hex'
p413
sS'path'
p414
S'caterina'
p415
sS'unlock_bits'
p416
S'0x3F'
p417
ssS'upload'
p418
(dp419
S'protocol'
p420
S'avr109'
p421
sS'maximum_size'
p422
S'28672'
p423
sS'speed'
p424
S'57600'
p425
sS'disable_flushing'
p426
S'true'
p427
ssS'name'
p428
S'Arduino Leonardo'
p429
saa(lp430
S'esplora'
p431
a(dp432
S'build'
p433
(dp434
S'core'
p435
S'arduino'
p436
sS'f_cpu'
p437
S'16000000L'
p438
sS'vid'
p439
S'0x2341'
p440
sS'pid'
p441
S'0x803C'
p442
sS'variant'
p443
S'leonardo'
p444
sS'mcu'
p445
S'atmega32u4'
p446
ssS'bootloader'
p447
(dp448
S'extended_fuses'
p449
S'0xcb'
p450
sS'high_fuses'
p451
S'0xd8'
p452
sS'low_fuses'
p453
S'0xff'
p454
sS'lock_bits'
p455
S'0x2F'
p456
sS'file'
p457
S'Caterina-Esplora.hex'
p458
sS'path'
p459
S'caterina'
p460
sS'unlock_bits'
p461
S'0x3F'
p462
ssS'upload'
p463
(dp464
S'protocol'
p465
S'avr109'
p466
sS'maximum_size'
p467
S'28672'
p468
sS'speed'
p469
S'57600'
p470
sS'disable_flushing'
p471
S'true'
p472
ssS'name'
p473
S'Arduino Esplora'
p474
saa(lp475
S'micro'
p476
a(dp477
S'build'
p478
(dp479
S'core'
p480
S'arduino'
p481
sS'f_cpu'
p482
S'16000000L'
p483
sS'vid'
p484
S'0x2341'
p485
sS'pid'
p486
S'0x8037'
p487
sS'variant'
p488
S'micro'
p489
sS'mcu'
p490
S'atmega32u4'
p491
ssS'bootloader'
p492
(dp493
S'extended_fuses'
p494
S'0xcb'
p495
sS'high_fuses'
p496
S'0xd8'
p497
sS'low_fuses'
p498
S'0xff'
p499
sS'lock_bits'
p500
S'0x2F'
p501
sS'file'
p502
S'Caterina-Micro.hex'
p503
sS'path'
p504
S'caterina'
p505
sS'unlock_bits'
p506
S'0x3F'
p507
ssS'upload'
p508
(dp509
S'protocol'
p510
S'avr109'
p511
sS'maximum_size'
p512
S'28672'
p513
sS'speed'
p514
S'57600'
p515
sS'disable_flushing'
p516
S'true'
p517
ssS'name'
p518
S'Arduino Micro'
p519
saa(lp520
S'mini328'
p521
a(dp522
S'build'
p523
(dp524
S'core'
p525
S'arduino'
p526
sS'mcu'
p527
S'atmega328p'
p528
sS'f_cpu'
p529
S'16000000L'
p530
sS'variant'
p531
S'eightanaloginputs'
p532
ssS'bootloader'
p533
(dp534
S'extended_fuses'
p535
S'0x05'
p536
sS'high_fuses'
p537
S'0xd8'
p538
sS'low_fuses'
p539
S'0xff'
p540
sS'lock_bits'
p541
S'0x0F'
p542
sS'file'
p543
S'optiboot_atmega328-Mini.hex'
p544
sS'path'
p545
S'optiboot'
p546
sS'unlock_bits'
p547
S'0x3F'
p548
ssS'upload'
p549
(dp550
S'protocol'
p551
S'arduino'
p552
sS'maximum_size'
p553
S'28672'
p554
sS'speed'
p555
S'115200'
p556
ssS'name'
p557
S'Arduino Mini w/ ATmega328'
p558
saa(lp559
S'mini'
p560
a(dp561
S'build'
p562
(dp563
S'core'
p564
S'arduino'
p565
sS'mcu'
p566
S'atmega168'
p567
sS'f_cpu'
p568
S'16000000L'
p569
sS'variant'
p570
S'eightanaloginputs'
p571
ssS'bootloader'
p572
(dp573
S'extended_fuses'
p574
S'0x00'
p575
sS'high_fuses'
p576
S'0xdd'
p577
sS'low_fuses'
p578
S'0xff'
p579
sS'lock_bits'
p580
S'0x0F'
p581
sS'file'
p582
S'ATmegaBOOT_168_ng.hex'
p583
sS'path'
p584
S'atmega'
p585
sS'unlock_bits'
p586
S'0x3F'
p587
ssS'upload'
p588
(dp589
S'protocol'
p590
S'arduino'
p591
sS'maximum_size'
p592
S'14336'
p593
sS'speed'
p594
S'19200'
p595
ssS'name'
p596
S'Arduino Mini w/ ATmega168'
p597
saa(lp598
S'ethernet'
p599
a(dp600
S'build'
p601
(dp602
S'variant'
p603
S'standard'
p604
sS'mcu'
p605
S'atmega328p'
p606
sS'f_cpu'
p607
S'16000000L'
p608
sS'core'
p609
S'arduino'
p610
ssS'bootloader'
p611
(dp612
S'extended_fuses'
p613
S'0x05'
p614
sS'high_fuses'
p615
S'0xde'
p616
sS'low_fuses'
p617
S'0xff'
p618
sS'lock_bits'
p619
S'0x0F'
p620
sS'file'
p621
S'optiboot_atmega328.hex'
p622
sS'path'
p623
S'optiboot'
p624
sS'unlock_bits'
p625
S'0x3F'
p626
ssS'upload'
p627
(dp628
S'protocol'
p629
S'arduino'
p630
sS'maximum_size'
p631
S'32256'
p632
sS'speed'
p633
S'115200'
p634
ssS'name'
p635
S'Arduino Ethernet'
p636
saa(lp637
S'fio'
p638
a(dp639
S'build'
p640
(dp641
S'core'
p642
S'arduino'
p643
sS'mcu'
p644
S'atmega328p'
p645
sS'f_cpu'
p646
S'8000000L'
p647
sS'variant'
p648
S'eightanaloginputs'
p649
ssS'bootloader'
p650
(dp651
S'extended_fuses'
p652
S'0x05'
p653
sS'high_fuses'
p654
S'0xDA'
p655
sS'low_fuses'
p656
S'0xFF'
p657
sS'lock_bits'
p658
S'0x0F'
p659
sS'file'
p660
S'ATmegaBOOT_168_atmega328_pro_8MHz.hex'
p661
sS'path'
p662
S'arduino:atmega'
p663
sS'unlock_bits'
p664
S'0x3F'
p665
ssS'upload'
p666
(dp667
S'protocol'
p668
S'arduino'
p669
sS'maximum_size'
p670
S'30720'
p671
sS'speed'
p672
S'57600'
p673
ssS'name'
p674
S'Arduino Fio'
p675
saa(lp676
S'bt328'
p677
a(dp678
S'build'
p679
(dp680
S'core'
p681
S'arduino'
p682
sS'mcu'
p683
S'atmega328p'
p684
sS'f_cpu'
p685
S'16000000L'
p686
sS'variant'
p687
S'eightanaloginputs'
p688
ssS'bootloader'
p689
(dp690
S'extended_fuses'
p691
S'0x05'
p692
sS'high_fuses'
p693
S'0xd8'
p694
sS'low_fuses'
p695
S'0xff'
p696
sS'lock_bits'
p697
S'0x0F'
p698
sS'file'
p699
S'ATmegaBOOT_168_atmega328_bt.hex'
p700
sS'path'
p701
S'bt'
p702
sS'unlock_bits'
p703
S'0x3F'
p704
ssS'upload'
p705
(dp706
S'protocol'
p707
S'arduino'
p708
sS'maximum_size'
p709
S'28672'
p710
sS'speed'
p711
S'19200'
p712
sS'disable_flushing'
p713
S'true'
p714
ssS'name'
p715
S'Arduino BT w/ ATmega328'
p716
saa(lp717
S'bt'
p718
a(dp719
S'build'
p720
(dp721
S'core'
p722
S'arduino'
p723
sS'mcu'
p724
S'atmega168'
p725
sS'f_cpu'
p726
S'16000000L'
p727
sS'variant'
p728
S'eightanaloginputs'
p729
ssS'bootloader'
p730
(dp731
S'extended_fuses'
p732
S'0x00'
p733
sS'high_fuses'
p734
S'0xdd'
p735
sS'low_fuses'
p736
S'0xff'
p737
sS'lock_bits'
p738
S'0x0F'
p739
sS'file'
p740
S'ATmegaBOOT_168.hex'
p741
sS'path'
p742
S'bt'
p743
sS'unlock_bits'
p744
S'0x3F'
p745
ssS'upload'
p746
(dp747
S'protocol'
p748
S'arduino'
p749
sS'maximum_size'
p750
S'14336'
p751
sS'speed'
p752
S'19200'
p753
sS'disable_flushing'
p754
S'true'
p755
ssS'name'
p756
S'Arduino BT w/ ATmega168'
p757
saa(lp758
S'LilyPadUSB'
p759
a(dp760
S'build'
p761
(dp762
S'core'
p763
S'arduino'
p764
sS'f_cpu'
p765
S'8000000L'
p766
sS'vid'
p767
S'0x1B4F'
p768
sS'pid'
p769
S'0x9208'
p770
sS'variant'
p771
S'leonardo'
p772
sS'mcu'
p773
S'atmega32u4'
p774
ssS'bootloader'
p775
(dp776
S'extended_fuses'
p777
S'0xce'
p778
sS'high_fuses'
p779
S'0xd8'
p780
sS'low_fuses'
p781
S'0xff'
p782
sS'lock_bits'
p783
S'0x2F'
p784
sS'file'
p785
S'Caterina-LilyPadUSB.hex'
p786
sS'path'
p787
S'caterina-LilyPadUSB'
p788
sS'unlock_bits'
p789
S'0x3F'
p790
ssS'upload'
p791
(dp792
S'protocol'
p793
S'avr109'
p794
sS'maximum_size'
p795
S'28672'
p796
sS'speed'
p797
S'57600'
p798
sS'disable_flushing'
p799
S'true'
p800
ssS'name'
p801
S'LilyPad Arduino USB'
p802
saa(lp803
S'lilypad328'
p804
a(dp805
S'build'
p806
(dp807
S'core'
p808
S'arduino'
p809
sS'mcu'
p810
S'atmega328p'
p811
sS'f_cpu'
p812
S'8000000L'
p813
sS'variant'
p814
S'standard'
p815
ssS'bootloader'
p816
(dp817
S'extended_fuses'
p818
S'0x05'
p819
sS'high_fuses'
p820
S'0xDA'
p821
sS'low_fuses'
p822
S'0xFF'
p823
sS'lock_bits'
p824
S'0x0F'
p825
sS'file'
p826
S'ATmegaBOOT_168_atmega328_pro_8MHz.hex'
p827
sS'path'
p828
S'atmega'
p829
sS'unlock_bits'
p830
S'0x3F'
p831
ssS'upload'
p832
(dp833
S'protocol'
p834
S'arduino'
p835
sS'maximum_size'
p836
S'30720'
p837
sS'speed'
p838
S'57600'
p839
ssS'name'
p840
S'LilyPad Arduino w/ ATmega328'
p841
saa(lp842
S'lilypad'
p843
a(dp844
S'build'
p845
(dp846
S'core'
p847
S'arduino'
p848
sS'mcu'
p849
S'atmega168'
p850
sS'f_cpu'
p851
S'8000000L'
p852
sS'variant'
p853
S'standard'
p854
ssS'bootloader'
p855
(dp856
S'extended_fuses'
p857
S'0x00'
p858
sS'high_fuses'
p859
S'0xdd'
p860
sS'low_fuses'
p861
S'0xe2'
p862
sS'lock_bits'
p863
S'0x0F'
p864
sS'file'
p865
S'LilyPadBOOT_168.hex'
p866
sS'path'
p867
S'lilypad'
p868
sS'unlock_bits'
p869
S'0x3F'
p870
ssS'upload'
p871
(dp872
S'protocol'
p873
S'arduino'
p874
sS'maximum_size'
p875
S'14336'
p876
sS'speed'
p877
S'19200'
p878
ssS'name'
p879
S'LilyPad Arduino w/ ATmega168'
p880
saa(lp881
S'pro5v328'
p882
a(dp883
S'build'
p884
(dp885
S'core'
p886
S'arduino'
p887
sS'mcu'
p888
S'atmega328p'
p889
sS'f_cpu'
p890
S'16000000L'
p891
sS'variant'
p892
S'standard'
p893
ssS'bootloader'
p894
(dp895
S'extended_fuses'
p896
S'0x05'
p897
sS'high_fuses'
p898
S'0xDA'
p899
sS'low_fuses'
p900
S'0xFF'
p901
sS'lock_bits'
p902
S'0x0F'
p903
sS'file'
p904
S'ATmegaBOOT_168_atmega328.hex'
p905
sS'path'
p906
S'atmega'
p907
sS'unlock_bits'
p908
S'0x3F'
p909
ssS'upload'
p910
(dp911
S'protocol'
p912
S'arduino'
p913
sS'maximum_size'
p914
S'30720'
p915
sS'speed'
p916
S'57600'
p917
ssS'name'
p918
S'Arduino Pro or Pro Mini (5V, 16 MHz) w/ ATmega328'
p919
saa(lp920
S'pro5v'
p921
a(dp922
S'build'
p923
(dp924
S'core'
p925
S'arduino'
p926
sS'mcu'
p927
S'atmega168'
p928
sS'f_cpu'
p929
S'16000000L'
p930
sS'variant'
p931
S'standard'
p932
ssS'bootloader'
p933
(dp934
S'extended_fuses'
p935
S'0x00'
p936
sS'high_fuses'
p937
S'0xdd'
p938
sS'low_fuses'
p939
S'0xff'
p940
sS'lock_bits'
p941
S'0x0F'
p942
sS'file'
p943
S'ATmegaBOOT_168_diecimila.hex'
p944
sS'path'
p945
S'atmega'
p946
sS'unlock_bits'
p947
S'0x3F'
p948
ssS'upload'
p949
(dp950
S'protocol'
p951
S'arduino'
p952
sS'maximum_size'
p953
S'14336'
p954
sS'speed'
p955
S'19200'
p956
ssS'name'
p957
S'Arduino Pro or Pro Mini (5V, 16 MHz) w/ ATmega168'
p958
saa(lp959
S'pro328'
p960
a(dp961
S'build'
p962
(dp963
S'core'
p964
S'arduino'
p965
sS'mcu'
p966
S'atmega328p'
p967
sS'f_cpu'
p968
S'8000000L'
p969
sS'variant'
p970
S'standard'
p971
ssS'bootloader'
p972
(dp973
S'extended_fuses'
p974
S'0x05'
p975
sS'high_fuses'
p976
S'0xDA'
p977
sS'low_fuses'
p978
S'0xFF'
p979
sS'lock_bits'
p980
S'0x0F'
p981
sS'file'
p982
S'ATmegaBOOT_168_atmega328_pro_8MHz.hex'
p983
sS'path'
p984
S'atmega'
p985
sS'unlock_bits'
p986
S'0x3F'
p987
ssS'upload'
p988
(dp989
S'protocol'
p990
S'arduino'
p991
sS'maximum_size'
p992
S'30720'
p993
sS'speed'
p994
S'57600'
p995
ssS'name'
p996
S'Arduino Pro or Pro Mini (3.3V, 8 MHz) w/ ATmega328'
p997
saa(lp998
S'pro'
p999
a(dp1000
S'build'
p1001
(dp1002
S'core'
p1003
S'arduino'
p1004
sS'mcu'
p1005
S'atmega168'
p1006
sS'f_cpu'
p1007
S'8000000L'
p1008
sS'variant'
p1009
S'standard'
p1010
ssS'bootloader'
p1011
(dp1012
S'extended_fuses'
p1013
S'0x00'
p1014
sS'high_fuses'
p1015
S'0xdd'
p1016
sS'low_fuses'
p1017
S'0xc6'
p1018
sS'lock_bits'
p1019
S'0x0F'
p1020
sS'file'
p1021
S'ATmegaBOOT_168_pro_8MHz.hex'
p1022
sS'path'
p1023
S'atmega'
p1024
sS'unlock_bits'
p1025
S'0x3F'
p1026
ssS'upload'
p1027
(dp1028
S'protocol'
p1029
S'arduino'
p1030
sS'maximum_size'
p1031
S'14336'
p1032
sS'speed'
p1033
S'19200'
p1034
ssS'name'
p1035
S'Arduino Pro or Pro Mini (3.3V, 8 MHz) w/ ATmega168'
p1036
saa(lp1037
S'atmega168'
p1038
a(dp1039
S'build'
p1040
(dp1041
S'core'
p1042
S'arduino'
p1043
sS'mcu'
p1044
S'atmega168'
p1045
sS'f_cpu'
p1046
S'16000000L'
p1047
sS'variant'
p1048
S'standard'
p1049
ssS'bootloader'
p1050
(dp1051
S'extended_fuses'
p1052
S'0x00'
p1053
sS'high_fuses'
p1054
S'0xdd'
p1055
sS'low_fuses'
p1056
S'0xff'
p1057
sS'lock_bits'
p1058
S'0x0F'
p1059
sS'file'
p1060
S'ATmegaBOOT_168_ng.hex'
p1061
sS'path'
p1062
S'atmega'
p1063
sS'unlock_bits'
p1064
S'0x3F'
p1065
ssS'upload'
p1066
(dp1067
S'protocol'
p1068
S'arduino'
p1069
sS'maximum_size'
p1070
S'14336'
p1071
sS'speed'
p1072
S'19200'
p1073
ssS'name'
p1074
S'Arduino NG or older w/ ATmega168'
p1075
saa(lp1076
S'atmega8'
p1077
a(dp1078
S'build'
p1079
(dp1080
S'core'
p1081
S'arduino'
p1082
sS'mcu'
p1083
S'atmega8'
p1084
sS'f_cpu'
p1085
S'16000000L'
p1086
sS'variant'
p1087
S'standard'
p1088
ssS'bootloader'
p1089
(dp1090
S'high_fuses'
p1091
S'0xca'
p1092
sS'low_fuses'
p1093
S'0xdf'
p1094
sS'lock_bits'
p1095
S'0x0F'
p1096
sS'file'
p1097
S'ATmegaBOOT-prod-firmware-2009-11-07.hex'
p1098
sS'path'
p1099
S'atmega8'
p1100
sS'unlock_bits'
p1101
S'0x3F'
p1102
ssS'upload'
p1103
(dp1104
S'protocol'
p1105
S'arduino'
p1106
sS'maximum_size'
p1107
S'7168'
p1108
sS'speed'
p1109
S'19200'
p1110
ssS'name'
p1111
S'Arduino NG or older w/ ATmega8'
p1112
saa(lp1113
S'robotControl'
p1114
a(dp1115
S'build'
p1116
(dp1117
S'core'
p1118
S'robot'
p1119
sS'f_cpu'
p1120
S'16000000L'
p1121
sS'vid'
p1122
S'0x2341'
p1123
sS'pid'
p1124
S'0x8038'
p1125
sS'variant'
p1126
S'robot_control'
p1127
sS'mcu'
p1128
S'atmega32u4'
p1129
ssS'bootloader'
p1130
(dp1131
S'extended_fuses'
p1132
S'0xcb'
p1133
sS'high_fuses'
p1134
S'0xd8'
p1135
sS'low_fuses'
p1136
S'0xff'
p1137
sS'lock_bits'
p1138
S'0x2F'
p1139
sS'file'
p1140
S'Caterina-Robot-Control.hex'
p1141
sS'path'
p1142
S'caterina-Arduino_Robot'
p1143
sS'unlock_bits'
p1144
S'0x3F'
p1145
ssS'upload'
p1146
(dp1147
S'protocol'
p1148
S'avr109'
p1149
sS'maximum_size'
p1150
S'28672'
p1151
sS'speed'
p1152
S'57600'
p1153
sS'disable_flushing'
p1154
S'true'
p1155
ssS'name'
p1156
S'Arduino Robot Control'
p1157
saa(lp1158
S'robotMotor'
p1159
a(dp1160
S'build'
p1161
(dp1162
S'core'
p1163
S'robot'
p1164
sS'f_cpu'
p1165
S'16000000L'
p1166
sS'vid'
p1167
S'0x2341'
p1168
sS'pid'
p1169
S'0x8039'
p1170
sS'variant'
p1171
S'robot_motor'
p1172
sS'mcu'
p1173
S'atmega32u4'
p1174
ssS'bootloader'
p1175
(dp1176
S'extended_fuses'
p1177
S'0xcb'
p1178
sS'high_fuses'
p1179
S'0xd8'
p1180
sS'low_fuses'
p1181
S'0xff'
p1182
sS'lock_bits'
p1183
S'0x2F'
p1184
sS'file'
p1185
S'Caterina-Robot-Motor.hex'
p1186
sS'path'
p1187
S'caterina-Arduino_Robot'
p1188
sS'unlock_bits'
p1189
S'0x3F'
p1190
ssS'upload'
p1191
(dp1192
S'protocol'
p1193
S'avr109'
p1194
sS'maximum_size'
p1195
S'28672'
p1196
sS'speed'
p1197
S'57600'
p1198
sS'disable_flushing'
p1199
S'true'
p1200
ssS'name'
p1201
S'Arduino Robot Motor'
p1202
saatp1203
Rp1204
(dp1205
S'default'
p1206
S'uno'
p1207
sbtp1208
a(S'used_libs'
p1209
(lp1210
S'lib/ros_lib'
p1211
aS'/usr/share/arduino/hardware/arduino/cores/arduino'
p1212
atp1213
a(S'make'
p1214
S'/usr/bin/make'
p1215
tp1216
a(S'build_dir'
p1217
S'.build/pro5v328'
p1218
tp1219
a(S'cc'
p1220
S'/usr/bin/avr-gcc'
p1221
tp1222
a(S'cflags'
p1223
g2
(g3
g4
(lp1224
tp1225
Rp1226
tp1227
a(S'cxxflags'
p1228
g2
(g3
g4
(lp1229
S'-fno-exceptions'
p1230
atp1231
Rp1232
tp1233
a(S'arduino_variants_dir'
p1234
S'/usr/share/arduino/hardware/arduino/variants'
p1235
tp1236
a(S'stty'
p1237
S'/bin/stty'
p1238
tp1239
a(S'version.txt'
p1240
S'/usr/share/arduino/lib/version.txt'
p1241
tp1242
a(S'arduino_core_dir'
p1243
g1212
tp1244
a(S'boards.txt'
p1245
S'/usr/share/arduino/hardware/arduino/boards.txt'
p1246
tp1247
a(S'avrdude.conf'
p1248
S'/usr/share/arduino/hardware/tools/avrdude.conf'
p1249
tp1250
a(S'deps'
p1251
g2
(g3
g4
(lp1252
S'.build/pro5v328/src/dependencies.d'
p1253
aS'.build/pro5v328/arduino/dependencies.d'
p1254
aS'.build/pro5v328/ros_lib/dependencies.d'
p1255
atp1256
Rp1257
tp1258
a.